
kernel/zig-out/bin/kernel:     file format elf64-x86-64


Disassembly of section .text:

ffffffff80000000 <memcmp>:
ffffffff80000000:	31 c0                	xor    %eax,%eax
ffffffff80000002:	48 85 d2             	test   %rdx,%rdx
ffffffff80000005:	74 3c                	je     ffffffff80000043 <memcmp+0x43>
ffffffff80000007:	66 0f 1f 84 00 00 00 	nopw   0x0(%rax,%rax,1)
ffffffff8000000e:	00 00 
ffffffff80000010:	48 85 ff             	test   %rdi,%rdi
ffffffff80000013:	74 35                	je     ffffffff8000004a <memcmp+0x4a>
ffffffff80000015:	48 85 f6             	test   %rsi,%rsi
ffffffff80000018:	74 30                	je     ffffffff8000004a <memcmp+0x4a>
ffffffff8000001a:	0f b6 0f             	movzbl (%rdi),%ecx
ffffffff8000001d:	44 0f b6 06          	movzbl (%rsi),%r8d
ffffffff80000021:	44 38 c1             	cmp    %r8b,%cl
ffffffff80000024:	75 1e                	jne    ffffffff80000044 <memcmp+0x44>
ffffffff80000026:	48 83 ff ff          	cmp    $0xffffffffffffffff,%rdi
ffffffff8000002a:	74 23                	je     ffffffff8000004f <memcmp+0x4f>
ffffffff8000002c:	48 83 fe ff          	cmp    $0xffffffffffffffff,%rsi
ffffffff80000030:	74 1d                	je     ffffffff8000004f <memcmp+0x4f>
ffffffff80000032:	48 83 c2 ff          	add    $0xffffffffffffffff,%rdx
ffffffff80000036:	48 83 c7 01          	add    $0x1,%rdi
ffffffff8000003a:	48 83 c6 01          	add    $0x1,%rsi
ffffffff8000003e:	48 85 d2             	test   %rdx,%rdx
ffffffff80000041:	75 cd                	jne    ffffffff80000010 <memcmp+0x10>
ffffffff80000043:	c3                   	ret
ffffffff80000044:	44 29 c1             	sub    %r8d,%ecx
ffffffff80000047:	89 c8                	mov    %ecx,%eax
ffffffff80000049:	c3                   	ret
ffffffff8000004a:	67 0f b9 40 16       	ud1    0x16(%eax),%eax
ffffffff8000004f:	67 0f b9 40 13       	ud1    0x13(%eax),%eax
ffffffff80000054:	66 2e 0f 1f 84 00 00 	cs nopw 0x0(%rax,%rax,1)
ffffffff8000005b:	00 00 00 
ffffffff8000005e:	66 90                	xchg   %ax,%ax

ffffffff80000060 <memmove>:
ffffffff80000060:	48 39 fe             	cmp    %rdi,%rsi
ffffffff80000063:	76 45                	jbe    ffffffff800000aa <memmove+0x4a>
ffffffff80000065:	48 85 d2             	test   %rdx,%rdx
ffffffff80000068:	0f 84 95 00 00 00    	je     ffffffff80000103 <memmove+0xa3>
ffffffff8000006e:	48 89 f8             	mov    %rdi,%rax
ffffffff80000071:	66 2e 0f 1f 84 00 00 	cs nopw 0x0(%rax,%rax,1)
ffffffff80000078:	00 00 00 
ffffffff8000007b:	0f 1f 44 00 00       	nopl   0x0(%rax,%rax,1)
ffffffff80000080:	48 85 c0             	test   %rax,%rax
ffffffff80000083:	0f 84 83 00 00 00    	je     ffffffff8000010c <memmove+0xac>
ffffffff80000089:	0f b6 0e             	movzbl (%rsi),%ecx
ffffffff8000008c:	88 08                	mov    %cl,(%rax)
ffffffff8000008e:	48 83 f8 ff          	cmp    $0xffffffffffffffff,%rax
ffffffff80000092:	74 73                	je     ffffffff80000107 <memmove+0xa7>
ffffffff80000094:	48 83 fe ff          	cmp    $0xffffffffffffffff,%rsi
ffffffff80000098:	74 6d                	je     ffffffff80000107 <memmove+0xa7>
ffffffff8000009a:	48 83 c0 01          	add    $0x1,%rax
ffffffff8000009e:	48 83 c6 01          	add    $0x1,%rsi
ffffffff800000a2:	48 83 c2 ff          	add    $0xffffffffffffffff,%rdx
ffffffff800000a6:	75 d8                	jne    ffffffff80000080 <memmove+0x20>
ffffffff800000a8:	eb 59                	jmp    ffffffff80000103 <memmove+0xa3>
ffffffff800000aa:	73 57                	jae    ffffffff80000103 <memmove+0xa3>
ffffffff800000ac:	48 89 f8             	mov    %rdi,%rax
ffffffff800000af:	48 01 d0             	add    %rdx,%rax
ffffffff800000b2:	72 53                	jb     ffffffff80000107 <memmove+0xa7>
ffffffff800000b4:	48 83 f8 01          	cmp    $0x1,%rax
ffffffff800000b8:	74 4d                	je     ffffffff80000107 <memmove+0xa7>
ffffffff800000ba:	48 8d 04 16          	lea    (%rsi,%rdx,1),%rax
ffffffff800000be:	48 39 f0             	cmp    %rsi,%rax
ffffffff800000c1:	72 44                	jb     ffffffff80000107 <memmove+0xa7>
ffffffff800000c3:	48 85 f6             	test   %rsi,%rsi
ffffffff800000c6:	74 3f                	je     ffffffff80000107 <memmove+0xa7>
ffffffff800000c8:	48 85 c0             	test   %rax,%rax
ffffffff800000cb:	74 3a                	je     ffffffff80000107 <memmove+0xa7>
ffffffff800000cd:	48 83 f8 01          	cmp    $0x1,%rax
ffffffff800000d1:	74 34                	je     ffffffff80000107 <memmove+0xa7>
ffffffff800000d3:	48 85 d2             	test   %rdx,%rdx
ffffffff800000d6:	74 2b                	je     ffffffff80000103 <memmove+0xa3>
ffffffff800000d8:	48 8d 47 ff          	lea    -0x1(%rdi),%rax
ffffffff800000dc:	48 83 c6 ff          	add    $0xffffffffffffffff,%rsi
ffffffff800000e0:	48 8d 0c 10          	lea    (%rax,%rdx,1),%rcx
ffffffff800000e4:	44 0f b6 04 16       	movzbl (%rsi,%rdx,1),%r8d
ffffffff800000e9:	44 88 04 10          	mov    %r8b,(%rax,%rdx,1)
ffffffff800000ed:	48 83 f9 01          	cmp    $0x1,%rcx
ffffffff800000f1:	74 14                	je     ffffffff80000107 <memmove+0xa7>
ffffffff800000f3:	48 8d 0c 16          	lea    (%rsi,%rdx,1),%rcx
ffffffff800000f7:	48 83 f9 01          	cmp    $0x1,%rcx
ffffffff800000fb:	74 0a                	je     ffffffff80000107 <memmove+0xa7>
ffffffff800000fd:	48 83 c2 ff          	add    $0xffffffffffffffff,%rdx
ffffffff80000101:	75 dd                	jne    ffffffff800000e0 <memmove+0x80>
ffffffff80000103:	48 89 f8             	mov    %rdi,%rax
ffffffff80000106:	c3                   	ret
ffffffff80000107:	67 0f b9 40 13       	ud1    0x13(%eax),%eax
ffffffff8000010c:	67 0f b9 40 16       	ud1    0x16(%eax),%eax
ffffffff80000111:	66 2e 0f 1f 84 00 00 	cs nopw 0x0(%rax,%rax,1)
ffffffff80000118:	00 00 00 
ffffffff8000011b:	0f 1f 44 00 00       	nopl   0x0(%rax,%rax,1)

ffffffff80000120 <memcpy>:
ffffffff80000120:	48 85 d2             	test   %rdx,%rdx
ffffffff80000123:	74 34                	je     ffffffff80000159 <memcpy+0x39>
ffffffff80000125:	48 89 f8             	mov    %rdi,%rax
ffffffff80000128:	0f 1f 84 00 00 00 00 	nopl   0x0(%rax,%rax,1)
ffffffff8000012f:	00 
ffffffff80000130:	48 85 f6             	test   %rsi,%rsi
ffffffff80000133:	74 28                	je     ffffffff8000015d <memcpy+0x3d>
ffffffff80000135:	48 85 c0             	test   %rax,%rax
ffffffff80000138:	74 23                	je     ffffffff8000015d <memcpy+0x3d>
ffffffff8000013a:	0f b6 0e             	movzbl (%rsi),%ecx
ffffffff8000013d:	88 08                	mov    %cl,(%rax)
ffffffff8000013f:	48 83 f8 ff          	cmp    $0xffffffffffffffff,%rax
ffffffff80000143:	74 1d                	je     ffffffff80000162 <memcpy+0x42>
ffffffff80000145:	48 83 fe ff          	cmp    $0xffffffffffffffff,%rsi
ffffffff80000149:	74 17                	je     ffffffff80000162 <memcpy+0x42>
ffffffff8000014b:	48 83 c0 01          	add    $0x1,%rax
ffffffff8000014f:	48 83 c6 01          	add    $0x1,%rsi
ffffffff80000153:	48 83 c2 ff          	add    $0xffffffffffffffff,%rdx
ffffffff80000157:	75 d7                	jne    ffffffff80000130 <memcpy+0x10>
ffffffff80000159:	48 89 f8             	mov    %rdi,%rax
ffffffff8000015c:	c3                   	ret
ffffffff8000015d:	67 0f b9 40 16       	ud1    0x16(%eax),%eax
ffffffff80000162:	67 0f b9 40 13       	ud1    0x13(%eax),%eax
ffffffff80000167:	66 0f 1f 84 00 00 00 	nopw   0x0(%rax,%rax,1)
ffffffff8000016e:	00 00 

ffffffff80000170 <memset>:
ffffffff80000170:	48 85 d2             	test   %rdx,%rdx
ffffffff80000173:	74 23                	je     ffffffff80000198 <memset+0x28>
ffffffff80000175:	48 89 f8             	mov    %rdi,%rax
ffffffff80000178:	0f 1f 84 00 00 00 00 	nopl   0x0(%rax,%rax,1)
ffffffff8000017f:	00 
ffffffff80000180:	48 85 c0             	test   %rax,%rax
ffffffff80000183:	74 17                	je     ffffffff8000019c <memset+0x2c>
ffffffff80000185:	40 88 30             	mov    %sil,(%rax)
ffffffff80000188:	48 83 f8 ff          	cmp    $0xffffffffffffffff,%rax
ffffffff8000018c:	74 13                	je     ffffffff800001a1 <memset+0x31>
ffffffff8000018e:	48 83 c0 01          	add    $0x1,%rax
ffffffff80000192:	48 83 c2 ff          	add    $0xffffffffffffffff,%rdx
ffffffff80000196:	75 e8                	jne    ffffffff80000180 <memset+0x10>
ffffffff80000198:	48 89 f8             	mov    %rdi,%rax
ffffffff8000019b:	c3                   	ret
ffffffff8000019c:	67 0f b9 40 16       	ud1    0x16(%eax),%eax
ffffffff800001a1:	67 0f b9 40 13       	ud1    0x13(%eax),%eax
ffffffff800001a6:	66 2e 0f 1f 84 00 00 	cs nopw 0x0(%rax,%rax,1)
ffffffff800001ad:	00 00 00 

ffffffff800001b0 <strlen>:
ffffffff800001b0:	48 85 ff             	test   %rdi,%rdi
ffffffff800001b3:	74 2e                	je     ffffffff800001e3 <strlen+0x33>
ffffffff800001b5:	80 3f 00             	cmpb   $0x0,(%rdi)
ffffffff800001b8:	74 21                	je     ffffffff800001db <strlen+0x2b>
ffffffff800001ba:	31 c0                	xor    %eax,%eax
ffffffff800001bc:	0f 1f 40 00          	nopl   0x0(%rax)
ffffffff800001c0:	48 8d 0c 07          	lea    (%rdi,%rax,1),%rcx
ffffffff800001c4:	48 83 f9 ff          	cmp    $0xffffffffffffffff,%rcx
ffffffff800001c8:	74 14                	je     ffffffff800001de <strlen+0x2e>
ffffffff800001ca:	48 8d 48 01          	lea    0x1(%rax),%rcx
ffffffff800001ce:	80 7c 07 01 00       	cmpb   $0x0,0x1(%rdi,%rax,1)
ffffffff800001d3:	48 89 c8             	mov    %rcx,%rax
ffffffff800001d6:	75 e8                	jne    ffffffff800001c0 <strlen+0x10>
ffffffff800001d8:	89 c8                	mov    %ecx,%eax
ffffffff800001da:	c3                   	ret
ffffffff800001db:	31 c0                	xor    %eax,%eax
ffffffff800001dd:	c3                   	ret
ffffffff800001de:	67 0f b9 40 13       	ud1    0x13(%eax),%eax
ffffffff800001e3:	67 0f b9 40 16       	ud1    0x16(%eax),%eax
ffffffff800001e8:	0f 1f 84 00 00 00 00 	nopl   0x0(%rax,%rax,1)
ffffffff800001ef:	00 

ffffffff800001f0 <strpbrk>:
ffffffff800001f0:	48 85 ff             	test   %rdi,%rdi
ffffffff800001f3:	74 4e                	je     ffffffff80000243 <strpbrk+0x53>
ffffffff800001f5:	0f b6 07             	movzbl (%rdi),%eax
ffffffff800001f8:	84 c0                	test   %al,%al
ffffffff800001fa:	74 3c                	je     ffffffff80000238 <strpbrk+0x48>
ffffffff800001fc:	48 85 f6             	test   %rsi,%rsi
ffffffff800001ff:	74 42                	je     ffffffff80000243 <strpbrk+0x53>
ffffffff80000201:	0f b6 16             	movzbl (%rsi),%edx
ffffffff80000204:	48 89 f1             	mov    %rsi,%rcx
ffffffff80000207:	84 d2                	test   %dl,%dl
ffffffff80000209:	74 1b                	je     ffffffff80000226 <strpbrk+0x36>
ffffffff8000020b:	0f 1f 44 00 00       	nopl   0x0(%rax,%rax,1)
ffffffff80000210:	38 d0                	cmp    %dl,%al
ffffffff80000212:	74 26                	je     ffffffff8000023a <strpbrk+0x4a>
ffffffff80000214:	48 83 f9 ff          	cmp    $0xffffffffffffffff,%rcx
ffffffff80000218:	74 24                	je     ffffffff8000023e <strpbrk+0x4e>
ffffffff8000021a:	0f b6 51 01          	movzbl 0x1(%rcx),%edx
ffffffff8000021e:	48 83 c1 01          	add    $0x1,%rcx
ffffffff80000222:	84 d2                	test   %dl,%dl
ffffffff80000224:	75 ea                	jne    ffffffff80000210 <strpbrk+0x20>
ffffffff80000226:	48 83 ff ff          	cmp    $0xffffffffffffffff,%rdi
ffffffff8000022a:	74 12                	je     ffffffff8000023e <strpbrk+0x4e>
ffffffff8000022c:	0f b6 47 01          	movzbl 0x1(%rdi),%eax
ffffffff80000230:	48 83 c7 01          	add    $0x1,%rdi
ffffffff80000234:	84 c0                	test   %al,%al
ffffffff80000236:	75 c4                	jne    ffffffff800001fc <strpbrk+0xc>
ffffffff80000238:	31 ff                	xor    %edi,%edi
ffffffff8000023a:	48 89 f8             	mov    %rdi,%rax
ffffffff8000023d:	c3                   	ret
ffffffff8000023e:	67 0f b9 40 13       	ud1    0x13(%eax),%eax
ffffffff80000243:	67 0f b9 40 16       	ud1    0x16(%eax),%eax
ffffffff80000248:	0f 1f 84 00 00 00 00 	nopl   0x0(%rax,%rax,1)
ffffffff8000024f:	00 

ffffffff80000250 <strtok>:
ffffffff80000250:	48 85 ff             	test   %rdi,%rdi
ffffffff80000253:	75 10                	jne    ffffffff80000265 <strtok+0x15>
ffffffff80000255:	48 8b 3d a4 bd 01 00 	mov    0x1bda4(%rip),%rdi        # ffffffff8001c000 <strtok.SavedPtr>
ffffffff8000025c:	48 85 ff             	test   %rdi,%rdi
ffffffff8000025f:	0f 84 27 01 00 00    	je     ffffffff8000038c <strtok+0x13c>
ffffffff80000265:	0f b6 0f             	movzbl (%rdi),%ecx
ffffffff80000268:	84 c9                	test   %cl,%cl
ffffffff8000026a:	0f 84 f6 00 00 00    	je     ffffffff80000366 <strtok+0x116>
ffffffff80000270:	48 89 f8             	mov    %rdi,%rax
ffffffff80000273:	48 85 f6             	test   %rsi,%rsi
ffffffff80000276:	0f 84 29 01 00 00    	je     ffffffff800003a5 <strtok+0x155>
ffffffff8000027c:	44 0f b6 06          	movzbl (%rsi),%r8d
ffffffff80000280:	48 89 f2             	mov    %rsi,%rdx
ffffffff80000283:	45 84 c0             	test   %r8b,%r8b
ffffffff80000286:	74 25                	je     ffffffff800002ad <strtok+0x5d>
ffffffff80000288:	0f 1f 84 00 00 00 00 	nopl   0x0(%rax,%rax,1)
ffffffff8000028f:	00 
ffffffff80000290:	44 38 c1             	cmp    %r8b,%cl
ffffffff80000293:	74 33                	je     ffffffff800002c8 <strtok+0x78>
ffffffff80000295:	48 83 fa ff          	cmp    $0xffffffffffffffff,%rdx
ffffffff80000299:	0f 84 fa 00 00 00    	je     ffffffff80000399 <strtok+0x149>
ffffffff8000029f:	44 0f b6 42 01       	movzbl 0x1(%rdx),%r8d
ffffffff800002a4:	48 83 c2 01          	add    $0x1,%rdx
ffffffff800002a8:	45 84 c0             	test   %r8b,%r8b
ffffffff800002ab:	75 e3                	jne    ffffffff80000290 <strtok+0x40>
ffffffff800002ad:	48 83 f8 ff          	cmp    $0xffffffffffffffff,%rax
ffffffff800002b1:	0f 84 e2 00 00 00    	je     ffffffff80000399 <strtok+0x149>
ffffffff800002b7:	0f b6 48 01          	movzbl 0x1(%rax),%ecx
ffffffff800002bb:	48 83 c0 01          	add    $0x1,%rax
ffffffff800002bf:	84 c9                	test   %cl,%cl
ffffffff800002c1:	75 b0                	jne    ffffffff80000273 <strtok+0x23>
ffffffff800002c3:	e9 9e 00 00 00       	jmp    ffffffff80000366 <strtok+0x116>
ffffffff800002c8:	48 39 f8             	cmp    %rdi,%rax
ffffffff800002cb:	0f 85 97 00 00 00    	jne    ffffffff80000368 <strtok+0x118>
ffffffff800002d1:	48 89 f9             	mov    %rdi,%rcx
ffffffff800002d4:	eb 13                	jmp    ffffffff800002e9 <strtok+0x99>
ffffffff800002d6:	66 2e 0f 1f 84 00 00 	cs nopw 0x0(%rax,%rax,1)
ffffffff800002dd:	00 00 00 
ffffffff800002e0:	48 89 f9             	mov    %rdi,%rcx
ffffffff800002e3:	48 83 fa 01          	cmp    $0x1,%rdx
ffffffff800002e7:	75 7f                	jne    ffffffff80000368 <strtok+0x118>
ffffffff800002e9:	48 83 f9 ff          	cmp    $0xffffffffffffffff,%rcx
ffffffff800002ed:	0f 84 b7 00 00 00    	je     ffffffff800003aa <strtok+0x15a>
ffffffff800002f3:	48 8d 79 01          	lea    0x1(%rcx),%rdi
ffffffff800002f7:	c6 01 00             	movb   $0x0,(%rcx)
ffffffff800002fa:	44 0f b6 41 01       	movzbl 0x1(%rcx),%r8d
ffffffff800002ff:	45 84 c0             	test   %r8b,%r8b
ffffffff80000302:	74 62                	je     ffffffff80000366 <strtok+0x116>
ffffffff80000304:	48 8d 41 01          	lea    0x1(%rcx),%rax
ffffffff80000308:	ba 01 00 00 00       	mov    $0x1,%edx
ffffffff8000030d:	48 85 f6             	test   %rsi,%rsi
ffffffff80000310:	0f 84 88 00 00 00    	je     ffffffff8000039e <strtok+0x14e>
ffffffff80000316:	44 0f b6 16          	movzbl (%rsi),%r10d
ffffffff8000031a:	49 89 f1             	mov    %rsi,%r9
ffffffff8000031d:	45 84 d2             	test   %r10b,%r10b
ffffffff80000320:	74 27                	je     ffffffff80000349 <strtok+0xf9>
ffffffff80000322:	66 2e 0f 1f 84 00 00 	cs nopw 0x0(%rax,%rax,1)
ffffffff80000329:	00 00 00 
ffffffff8000032c:	0f 1f 40 00          	nopl   0x0(%rax)
ffffffff80000330:	45 38 d0             	cmp    %r10b,%r8b
ffffffff80000333:	74 ab                	je     ffffffff800002e0 <strtok+0x90>
ffffffff80000335:	49 83 f9 ff          	cmp    $0xffffffffffffffff,%r9
ffffffff80000339:	74 57                	je     ffffffff80000392 <strtok+0x142>
ffffffff8000033b:	45 0f b6 51 01       	movzbl 0x1(%r9),%r10d
ffffffff80000340:	49 83 c1 01          	add    $0x1,%r9
ffffffff80000344:	45 84 d2             	test   %r10b,%r10b
ffffffff80000347:	75 e7                	jne    ffffffff80000330 <strtok+0xe0>
ffffffff80000349:	48 83 f8 ff          	cmp    $0xffffffffffffffff,%rax
ffffffff8000034d:	74 43                	je     ffffffff80000392 <strtok+0x142>
ffffffff8000034f:	48 8d 04 11          	lea    (%rcx,%rdx,1),%rax
ffffffff80000353:	48 83 c0 01          	add    $0x1,%rax
ffffffff80000357:	44 0f b6 44 11 01    	movzbl 0x1(%rcx,%rdx,1),%r8d
ffffffff8000035d:	48 83 c2 01          	add    $0x1,%rdx
ffffffff80000361:	45 84 c0             	test   %r8b,%r8b
ffffffff80000364:	75 a7                	jne    ffffffff8000030d <strtok+0xbd>
ffffffff80000366:	31 c0                	xor    %eax,%eax
ffffffff80000368:	48 89 05 91 bc 01 00 	mov    %rax,0x1bc91(%rip)        # ffffffff8001c000 <strtok.SavedPtr>
ffffffff8000036f:	48 85 c0             	test   %rax,%rax
ffffffff80000372:	74 18                	je     ffffffff8000038c <strtok+0x13c>
ffffffff80000374:	48 83 f8 ff          	cmp    $0xffffffffffffffff,%rax
ffffffff80000378:	74 1f                	je     ffffffff80000399 <strtok+0x149>
ffffffff8000037a:	48 8d 48 01          	lea    0x1(%rax),%rcx
ffffffff8000037e:	48 89 0d 7b bc 01 00 	mov    %rcx,0x1bc7b(%rip)        # ffffffff8001c000 <strtok.SavedPtr>
ffffffff80000385:	c6 00 00             	movb   $0x0,(%rax)
ffffffff80000388:	48 89 f8             	mov    %rdi,%rax
ffffffff8000038b:	c3                   	ret
ffffffff8000038c:	31 ff                	xor    %edi,%edi
ffffffff8000038e:	48 89 f8             	mov    %rdi,%rax
ffffffff80000391:	c3                   	ret
ffffffff80000392:	48 89 0d 67 bc 01 00 	mov    %rcx,0x1bc67(%rip)        # ffffffff8001c000 <strtok.SavedPtr>
ffffffff80000399:	67 0f b9 40 13       	ud1    0x13(%eax),%eax
ffffffff8000039e:	48 89 0d 5b bc 01 00 	mov    %rcx,0x1bc5b(%rip)        # ffffffff8001c000 <strtok.SavedPtr>
ffffffff800003a5:	67 0f b9 40 16       	ud1    0x16(%eax),%eax
ffffffff800003aa:	48 c7 05 4b bc 01 00 	movq   $0xffffffffffffffff,0x1bc4b(%rip)        # ffffffff8001c000 <strtok.SavedPtr>
ffffffff800003b1:	ff ff ff ff 
ffffffff800003b5:	67 0f b9 40 13       	ud1    0x13(%eax),%eax
ffffffff800003ba:	66 0f 1f 44 00 00    	nopw   0x0(%rax,%rax,1)

ffffffff800003c0 <strcpy>:
ffffffff800003c0:	48 85 f6             	test   %rsi,%rsi
ffffffff800003c3:	74 4a                	je     ffffffff8000040f <strcpy+0x4f>
ffffffff800003c5:	0f b6 0e             	movzbl (%rsi),%ecx
ffffffff800003c8:	48 89 f8             	mov    %rdi,%rax
ffffffff800003cb:	84 c9                	test   %cl,%cl
ffffffff800003cd:	74 34                	je     ffffffff80000403 <strcpy+0x43>
ffffffff800003cf:	48 89 f8             	mov    %rdi,%rax
ffffffff800003d2:	66 2e 0f 1f 84 00 00 	cs nopw 0x0(%rax,%rax,1)
ffffffff800003d9:	00 00 00 
ffffffff800003dc:	0f 1f 40 00          	nopl   0x0(%rax)
ffffffff800003e0:	48 85 c0             	test   %rax,%rax
ffffffff800003e3:	74 2a                	je     ffffffff8000040f <strcpy+0x4f>
ffffffff800003e5:	88 08                	mov    %cl,(%rax)
ffffffff800003e7:	48 83 fe ff          	cmp    $0xffffffffffffffff,%rsi
ffffffff800003eb:	74 27                	je     ffffffff80000414 <strcpy+0x54>
ffffffff800003ed:	48 83 f8 ff          	cmp    $0xffffffffffffffff,%rax
ffffffff800003f1:	74 21                	je     ffffffff80000414 <strcpy+0x54>
ffffffff800003f3:	48 83 c0 01          	add    $0x1,%rax
ffffffff800003f7:	0f b6 4e 01          	movzbl 0x1(%rsi),%ecx
ffffffff800003fb:	48 83 c6 01          	add    $0x1,%rsi
ffffffff800003ff:	84 c9                	test   %cl,%cl
ffffffff80000401:	75 dd                	jne    ffffffff800003e0 <strcpy+0x20>
ffffffff80000403:	48 85 c0             	test   %rax,%rax
ffffffff80000406:	74 07                	je     ffffffff8000040f <strcpy+0x4f>
ffffffff80000408:	c6 00 00             	movb   $0x0,(%rax)
ffffffff8000040b:	48 89 f8             	mov    %rdi,%rax
ffffffff8000040e:	c3                   	ret
ffffffff8000040f:	67 0f b9 40 16       	ud1    0x16(%eax),%eax
ffffffff80000414:	67 0f b9 40 13       	ud1    0x13(%eax),%eax
ffffffff80000419:	0f 1f 80 00 00 00 00 	nopl   0x0(%rax)

ffffffff80000420 <strncpy>:
ffffffff80000420:	48 85 d2             	test   %rdx,%rdx
ffffffff80000423:	74 77                	je     ffffffff8000049c <strncpy+0x7c>
ffffffff80000425:	48 8d 4a ff          	lea    -0x1(%rdx),%rcx
ffffffff80000429:	45 31 c0             	xor    %r8d,%r8d
ffffffff8000042c:	0f 1f 40 00          	nopl   0x0(%rax)
ffffffff80000430:	4a 8d 04 06          	lea    (%rsi,%r8,1),%rax
ffffffff80000434:	48 83 c0 01          	add    $0x1,%rax
ffffffff80000438:	48 83 f8 01          	cmp    $0x1,%rax
ffffffff8000043c:	76 62                	jbe    ffffffff800004a0 <strncpy+0x80>
ffffffff8000043e:	4a 8d 04 07          	lea    (%rdi,%r8,1),%rax
ffffffff80000442:	48 83 c0 01          	add    $0x1,%rax
ffffffff80000446:	48 83 f8 02          	cmp    $0x2,%rax
ffffffff8000044a:	72 54                	jb     ffffffff800004a0 <strncpy+0x80>
ffffffff8000044c:	46 0f b6 0c 06       	movzbl (%rsi,%r8,1),%r9d
ffffffff80000451:	46 88 0c 07          	mov    %r9b,(%rdi,%r8,1)
ffffffff80000455:	49 8d 40 01          	lea    0x1(%r8),%rax
ffffffff80000459:	45 84 c9             	test   %r9b,%r9b
ffffffff8000045c:	74 08                	je     ffffffff80000466 <strncpy+0x46>
ffffffff8000045e:	4c 39 c1             	cmp    %r8,%rcx
ffffffff80000461:	49 89 c0             	mov    %rax,%r8
ffffffff80000464:	75 ca                	jne    ffffffff80000430 <strncpy+0x10>
ffffffff80000466:	48 29 c2             	sub    %rax,%rdx
ffffffff80000469:	74 31                	je     ffffffff8000049c <strncpy+0x7c>
ffffffff8000046b:	48 8d 0c 07          	lea    (%rdi,%rax,1),%rcx
ffffffff8000046f:	31 f6                	xor    %esi,%esi
ffffffff80000471:	66 2e 0f 1f 84 00 00 	cs nopw 0x0(%rax,%rax,1)
ffffffff80000478:	00 00 00 
ffffffff8000047b:	0f 1f 44 00 00       	nopl   0x0(%rax,%rax,1)
ffffffff80000480:	4c 8d 04 31          	lea    (%rcx,%rsi,1),%r8
ffffffff80000484:	4c 8d 0c 37          	lea    (%rdi,%rsi,1),%r9
ffffffff80000488:	42 c6 04 08 00       	movb   $0x0,(%rax,%r9,1)
ffffffff8000048d:	49 83 f8 ff          	cmp    $0xffffffffffffffff,%r8
ffffffff80000491:	74 0d                	je     ffffffff800004a0 <strncpy+0x80>
ffffffff80000493:	48 83 c6 01          	add    $0x1,%rsi
ffffffff80000497:	48 39 f2             	cmp    %rsi,%rdx
ffffffff8000049a:	75 e4                	jne    ffffffff80000480 <strncpy+0x60>
ffffffff8000049c:	48 89 f8             	mov    %rdi,%rax
ffffffff8000049f:	c3                   	ret
ffffffff800004a0:	67 0f b9 40 13       	ud1    0x13(%eax),%eax
ffffffff800004a5:	66 2e 0f 1f 84 00 00 	cs nopw 0x0(%rax,%rax,1)
ffffffff800004ac:	00 00 00 
ffffffff800004af:	90                   	nop

ffffffff800004b0 <strcmp>:
ffffffff800004b0:	48 85 ff             	test   %rdi,%rdi
ffffffff800004b3:	74 3a                	je     ffffffff800004ef <strcmp+0x3f>
ffffffff800004b5:	48 85 f6             	test   %rsi,%rsi
ffffffff800004b8:	74 35                	je     ffffffff800004ef <strcmp+0x3f>
ffffffff800004ba:	66 0f 1f 44 00 00    	nopw   0x0(%rax,%rax,1)
ffffffff800004c0:	0f b6 07             	movzbl (%rdi),%eax
ffffffff800004c3:	0f b6 0e             	movzbl (%rsi),%ecx
ffffffff800004c6:	38 c8                	cmp    %cl,%al
ffffffff800004c8:	75 1a                	jne    ffffffff800004e4 <strcmp+0x34>
ffffffff800004ca:	48 83 ff ff          	cmp    $0xffffffffffffffff,%rdi
ffffffff800004ce:	74 1a                	je     ffffffff800004ea <strcmp+0x3a>
ffffffff800004d0:	85 c0                	test   %eax,%eax
ffffffff800004d2:	74 13                	je     ffffffff800004e7 <strcmp+0x37>
ffffffff800004d4:	48 83 fe ff          	cmp    $0xffffffffffffffff,%rsi
ffffffff800004d8:	74 10                	je     ffffffff800004ea <strcmp+0x3a>
ffffffff800004da:	48 83 c7 01          	add    $0x1,%rdi
ffffffff800004de:	48 83 c6 01          	add    $0x1,%rsi
ffffffff800004e2:	eb dc                	jmp    ffffffff800004c0 <strcmp+0x10>
ffffffff800004e4:	29 c8                	sub    %ecx,%eax
ffffffff800004e6:	c3                   	ret
ffffffff800004e7:	31 c0                	xor    %eax,%eax
ffffffff800004e9:	c3                   	ret
ffffffff800004ea:	67 0f b9 40 13       	ud1    0x13(%eax),%eax
ffffffff800004ef:	67 0f b9 40 16       	ud1    0x16(%eax),%eax
ffffffff800004f4:	66 2e 0f 1f 84 00 00 	cs nopw 0x0(%rax,%rax,1)
ffffffff800004fb:	00 00 00 
ffffffff800004fe:	66 90                	xchg   %ax,%ax

ffffffff80000500 <strchr>:
ffffffff80000500:	48 85 ff             	test   %rdi,%rdi
ffffffff80000503:	74 2f                	je     ffffffff80000534 <strchr+0x34>
ffffffff80000505:	0f b6 0f             	movzbl (%rdi),%ecx
ffffffff80000508:	84 c9                	test   %cl,%cl
ffffffff8000050a:	74 1d                	je     ffffffff80000529 <strchr+0x29>
ffffffff8000050c:	40 0f be c6          	movsbl %sil,%eax
ffffffff80000510:	0f be c9             	movsbl %cl,%ecx
ffffffff80000513:	39 c8                	cmp    %ecx,%eax
ffffffff80000515:	74 14                	je     ffffffff8000052b <strchr+0x2b>
ffffffff80000517:	48 83 ff ff          	cmp    $0xffffffffffffffff,%rdi
ffffffff8000051b:	74 12                	je     ffffffff8000052f <strchr+0x2f>
ffffffff8000051d:	0f b6 4f 01          	movzbl 0x1(%rdi),%ecx
ffffffff80000521:	48 83 c7 01          	add    $0x1,%rdi
ffffffff80000525:	84 c9                	test   %cl,%cl
ffffffff80000527:	75 e7                	jne    ffffffff80000510 <strchr+0x10>
ffffffff80000529:	31 ff                	xor    %edi,%edi
ffffffff8000052b:	48 89 f8             	mov    %rdi,%rax
ffffffff8000052e:	c3                   	ret
ffffffff8000052f:	67 0f b9 40 13       	ud1    0x13(%eax),%eax
ffffffff80000534:	67 0f b9 40 16       	ud1    0x16(%eax),%eax
ffffffff80000539:	0f 1f 80 00 00 00 00 	nopl   0x0(%rax)

ffffffff80000540 <strncmp>:
ffffffff80000540:	31 c0                	xor    %eax,%eax
ffffffff80000542:	48 85 d2             	test   %rdx,%rdx
ffffffff80000545:	74 40                	je     ffffffff80000587 <strncmp+0x47>
ffffffff80000547:	66 0f 1f 84 00 00 00 	nopw   0x0(%rax,%rax,1)
ffffffff8000054e:	00 00 
ffffffff80000550:	48 85 ff             	test   %rdi,%rdi
ffffffff80000553:	74 39                	je     ffffffff8000058e <strncmp+0x4e>
ffffffff80000555:	48 85 f6             	test   %rsi,%rsi
ffffffff80000558:	74 34                	je     ffffffff8000058e <strncmp+0x4e>
ffffffff8000055a:	0f b6 0f             	movzbl (%rdi),%ecx
ffffffff8000055d:	44 0f b6 06          	movzbl (%rsi),%r8d
ffffffff80000561:	44 38 c1             	cmp    %r8b,%cl
ffffffff80000564:	75 22                	jne    ffffffff80000588 <strncmp+0x48>
ffffffff80000566:	48 83 ff ff          	cmp    $0xffffffffffffffff,%rdi
ffffffff8000056a:	74 27                	je     ffffffff80000593 <strncmp+0x53>
ffffffff8000056c:	85 c9                	test   %ecx,%ecx
ffffffff8000056e:	74 17                	je     ffffffff80000587 <strncmp+0x47>
ffffffff80000570:	48 83 fe ff          	cmp    $0xffffffffffffffff,%rsi
ffffffff80000574:	74 1d                	je     ffffffff80000593 <strncmp+0x53>
ffffffff80000576:	48 83 c2 ff          	add    $0xffffffffffffffff,%rdx
ffffffff8000057a:	48 83 c7 01          	add    $0x1,%rdi
ffffffff8000057e:	48 83 c6 01          	add    $0x1,%rsi
ffffffff80000582:	48 85 d2             	test   %rdx,%rdx
ffffffff80000585:	75 c9                	jne    ffffffff80000550 <strncmp+0x10>
ffffffff80000587:	c3                   	ret
ffffffff80000588:	44 29 c1             	sub    %r8d,%ecx
ffffffff8000058b:	89 c8                	mov    %ecx,%eax
ffffffff8000058d:	c3                   	ret
ffffffff8000058e:	67 0f b9 40 16       	ud1    0x16(%eax),%eax
ffffffff80000593:	67 0f b9 40 13       	ud1    0x13(%eax),%eax
ffffffff80000598:	0f 1f 84 00 00 00 00 	nopl   0x0(%rax,%rax,1)
ffffffff8000059f:	00 

ffffffff800005a0 <strcat>:
ffffffff800005a0:	48 89 f9             	mov    %rdi,%rcx
ffffffff800005a3:	66 2e 0f 1f 84 00 00 	cs nopw 0x0(%rax,%rax,1)
ffffffff800005aa:	00 00 00 
ffffffff800005ad:	0f 1f 00             	nopl   (%rax)
ffffffff800005b0:	48 8d 41 01          	lea    0x1(%rcx),%rax
ffffffff800005b4:	48 83 f8 01          	cmp    $0x1,%rax
ffffffff800005b8:	76 51                	jbe    ffffffff8000060b <strcat+0x6b>
ffffffff800005ba:	80 39 00             	cmpb   $0x0,(%rcx)
ffffffff800005bd:	48 89 c1             	mov    %rax,%rcx
ffffffff800005c0:	75 ee                	jne    ffffffff800005b0 <strcat+0x10>
ffffffff800005c2:	48 83 f8 01          	cmp    $0x1,%rax
ffffffff800005c6:	74 43                	je     ffffffff8000060b <strcat+0x6b>
ffffffff800005c8:	48 c7 c1 ff ff ff ff 	mov    $0xffffffffffffffff,%rcx
ffffffff800005cf:	48 89 f2             	mov    %rsi,%rdx
ffffffff800005d2:	66 2e 0f 1f 84 00 00 	cs nopw 0x0(%rax,%rax,1)
ffffffff800005d9:	00 00 00 
ffffffff800005dc:	0f 1f 40 00          	nopl   0x0(%rax)
ffffffff800005e0:	48 83 c2 01          	add    $0x1,%rdx
ffffffff800005e4:	48 83 fa 02          	cmp    $0x2,%rdx
ffffffff800005e8:	72 21                	jb     ffffffff8000060b <strcat+0x6b>
ffffffff800005ea:	4c 8d 04 08          	lea    (%rax,%rcx,1),%r8
ffffffff800005ee:	49 83 f8 ff          	cmp    $0xffffffffffffffff,%r8
ffffffff800005f2:	74 17                	je     ffffffff8000060b <strcat+0x6b>
ffffffff800005f4:	44 0f b6 44 0e 01    	movzbl 0x1(%rsi,%rcx,1),%r8d
ffffffff800005fa:	44 88 04 08          	mov    %r8b,(%rax,%rcx,1)
ffffffff800005fe:	48 83 c1 01          	add    $0x1,%rcx
ffffffff80000602:	45 84 c0             	test   %r8b,%r8b
ffffffff80000605:	75 d9                	jne    ffffffff800005e0 <strcat+0x40>
ffffffff80000607:	48 89 f8             	mov    %rdi,%rax
ffffffff8000060a:	c3                   	ret
ffffffff8000060b:	67 0f b9 40 13       	ud1    0x13(%eax),%eax

ffffffff80000610 <strncat>:
ffffffff80000610:	48 85 d2             	test   %rdx,%rdx
ffffffff80000613:	74 78                	je     ffffffff8000068d <strncat+0x7d>
ffffffff80000615:	48 89 f9             	mov    %rdi,%rcx
ffffffff80000618:	0f 1f 84 00 00 00 00 	nopl   0x0(%rax,%rax,1)
ffffffff8000061f:	00 
ffffffff80000620:	48 8d 41 01          	lea    0x1(%rcx),%rax
ffffffff80000624:	48 83 f8 01          	cmp    $0x1,%rax
ffffffff80000628:	76 67                	jbe    ffffffff80000691 <strncat+0x81>
ffffffff8000062a:	80 39 00             	cmpb   $0x0,(%rcx)
ffffffff8000062d:	48 89 c1             	mov    %rax,%rcx
ffffffff80000630:	75 ee                	jne    ffffffff80000620 <strncat+0x10>
ffffffff80000632:	48 83 f8 01          	cmp    $0x1,%rax
ffffffff80000636:	74 59                	je     ffffffff80000691 <strncat+0x81>
ffffffff80000638:	b9 01 00 00 00       	mov    $0x1,%ecx
ffffffff8000063d:	48 29 d1             	sub    %rdx,%rcx
ffffffff80000640:	48 c7 c2 ff ff ff ff 	mov    $0xffffffffffffffff,%rdx
ffffffff80000647:	49 89 f0             	mov    %rsi,%r8
ffffffff8000064a:	66 0f 1f 44 00 00    	nopw   0x0(%rax,%rax,1)
ffffffff80000650:	49 83 c0 01          	add    $0x1,%r8
ffffffff80000654:	49 83 f8 02          	cmp    $0x2,%r8
ffffffff80000658:	72 37                	jb     ffffffff80000691 <strncat+0x81>
ffffffff8000065a:	4c 8d 0c 10          	lea    (%rax,%rdx,1),%r9
ffffffff8000065e:	49 83 f9 ff          	cmp    $0xffffffffffffffff,%r9
ffffffff80000662:	74 2d                	je     ffffffff80000691 <strncat+0x81>
ffffffff80000664:	44 0f b6 54 16 01    	movzbl 0x1(%rsi,%rdx,1),%r10d
ffffffff8000066a:	44 88 14 10          	mov    %r10b,(%rax,%rdx,1)
ffffffff8000066e:	4c 8d 4a 01          	lea    0x1(%rdx),%r9
ffffffff80000672:	45 84 d2             	test   %r10b,%r10b
ffffffff80000675:	74 0c                	je     ffffffff80000683 <strncat+0x73>
ffffffff80000677:	48 01 ca             	add    %rcx,%rdx
ffffffff8000067a:	48 83 fa ff          	cmp    $0xffffffffffffffff,%rdx
ffffffff8000067e:	4c 89 ca             	mov    %r9,%rdx
ffffffff80000681:	75 cd                	jne    ffffffff80000650 <strncat+0x40>
ffffffff80000683:	45 84 d2             	test   %r10b,%r10b
ffffffff80000686:	74 05                	je     ffffffff8000068d <strncat+0x7d>
ffffffff80000688:	42 c6 04 08 00       	movb   $0x0,(%rax,%r9,1)
ffffffff8000068d:	48 89 f8             	mov    %rdi,%rax
ffffffff80000690:	c3                   	ret
ffffffff80000691:	67 0f b9 40 13       	ud1    0x13(%eax),%eax
ffffffff80000696:	66 2e 0f 1f 84 00 00 	cs nopw 0x0(%rax,%rax,1)
ffffffff8000069d:	00 00 00 

ffffffff800006a0 <strstr>:
ffffffff800006a0:	48 85 f6             	test   %rsi,%rsi
ffffffff800006a3:	0f 84 ac 00 00 00    	je     ffffffff80000755 <strstr+0xb5>
ffffffff800006a9:	80 3e 00             	cmpb   $0x0,(%rsi)
ffffffff800006ac:	74 26                	je     ffffffff800006d4 <strstr+0x34>
ffffffff800006ae:	31 c9                	xor    %ecx,%ecx
ffffffff800006b0:	48 8d 04 0e          	lea    (%rsi,%rcx,1),%rax
ffffffff800006b4:	48 83 f8 ff          	cmp    $0xffffffffffffffff,%rax
ffffffff800006b8:	0f 84 8c 00 00 00    	je     ffffffff8000074a <strstr+0xaa>
ffffffff800006be:	48 8d 41 01          	lea    0x1(%rcx),%rax
ffffffff800006c2:	80 7c 0e 01 00       	cmpb   $0x0,0x1(%rsi,%rcx,1)
ffffffff800006c7:	48 89 c1             	mov    %rax,%rcx
ffffffff800006ca:	75 e4                	jne    ffffffff800006b0 <strstr+0x10>
ffffffff800006cc:	85 c0                	test   %eax,%eax
ffffffff800006ce:	75 0a                	jne    ffffffff800006da <strstr+0x3a>
ffffffff800006d0:	48 89 f8             	mov    %rdi,%rax
ffffffff800006d3:	c3                   	ret
ffffffff800006d4:	31 c0                	xor    %eax,%eax
ffffffff800006d6:	85 c0                	test   %eax,%eax
ffffffff800006d8:	74 f6                	je     ffffffff800006d0 <strstr+0x30>
ffffffff800006da:	48 85 ff             	test   %rdi,%rdi
ffffffff800006dd:	74 76                	je     ffffffff80000755 <strstr+0xb5>
ffffffff800006df:	89 c0                	mov    %eax,%eax
ffffffff800006e1:	80 3f 00             	cmpb   $0x0,(%rdi)
ffffffff800006e4:	b9 00 00 00 00       	mov    $0x0,%ecx
ffffffff800006e9:	74 1d                	je     ffffffff80000708 <strstr+0x68>
ffffffff800006eb:	31 d2                	xor    %edx,%edx
ffffffff800006ed:	0f 1f 00             	nopl   (%rax)
ffffffff800006f0:	48 8d 0c 17          	lea    (%rdi,%rdx,1),%rcx
ffffffff800006f4:	48 83 f9 ff          	cmp    $0xffffffffffffffff,%rcx
ffffffff800006f8:	74 50                	je     ffffffff8000074a <strstr+0xaa>
ffffffff800006fa:	48 8d 4a 01          	lea    0x1(%rdx),%rcx
ffffffff800006fe:	80 7c 17 01 00       	cmpb   $0x0,0x1(%rdi,%rdx,1)
ffffffff80000703:	48 89 ca             	mov    %rcx,%rdx
ffffffff80000706:	75 e8                	jne    ffffffff800006f0 <strstr+0x50>
ffffffff80000708:	39 c1                	cmp    %eax,%ecx
ffffffff8000070a:	72 43                	jb     ffffffff8000074f <strstr+0xaf>
ffffffff8000070c:	31 c9                	xor    %ecx,%ecx
ffffffff8000070e:	66 90                	xchg   %ax,%ax
ffffffff80000710:	0f b6 14 0f          	movzbl (%rdi,%rcx,1),%edx
ffffffff80000714:	3a 14 0e             	cmp    (%rsi,%rcx,1),%dl
ffffffff80000717:	75 27                	jne    ffffffff80000740 <strstr+0xa0>
ffffffff80000719:	48 8d 14 0f          	lea    (%rdi,%rcx,1),%rdx
ffffffff8000071d:	48 83 fa ff          	cmp    $0xffffffffffffffff,%rdx
ffffffff80000721:	74 27                	je     ffffffff8000074a <strstr+0xaa>
ffffffff80000723:	48 8d 14 0e          	lea    (%rsi,%rcx,1),%rdx
ffffffff80000727:	48 83 fa ff          	cmp    $0xffffffffffffffff,%rdx
ffffffff8000072b:	74 1d                	je     ffffffff8000074a <strstr+0xaa>
ffffffff8000072d:	48 83 c1 01          	add    $0x1,%rcx
ffffffff80000731:	48 39 c8             	cmp    %rcx,%rax
ffffffff80000734:	75 da                	jne    ffffffff80000710 <strstr+0x70>
ffffffff80000736:	eb 98                	jmp    ffffffff800006d0 <strstr+0x30>
ffffffff80000738:	0f 1f 84 00 00 00 00 	nopl   0x0(%rax,%rax,1)
ffffffff8000073f:	00 
ffffffff80000740:	48 83 c7 01          	add    $0x1,%rdi
ffffffff80000744:	48 83 ff 01          	cmp    $0x1,%rdi
ffffffff80000748:	77 97                	ja     ffffffff800006e1 <strstr+0x41>
ffffffff8000074a:	67 0f b9 40 13       	ud1    0x13(%eax),%eax
ffffffff8000074f:	31 ff                	xor    %edi,%edi
ffffffff80000751:	48 89 f8             	mov    %rdi,%rax
ffffffff80000754:	c3                   	ret
ffffffff80000755:	67 0f b9 40 16       	ud1    0x16(%eax),%eax
ffffffff8000075a:	66 0f 1f 44 00 00    	nopw   0x0(%rax,%rax,1)

ffffffff80000760 <simple_strtoul>:
ffffffff80000760:	55                   	push   %rbp
ffffffff80000761:	41 57                	push   %r15
ffffffff80000763:	41 56                	push   %r14
ffffffff80000765:	41 55                	push   %r13
ffffffff80000767:	41 54                	push   %r12
ffffffff80000769:	53                   	push   %rbx
ffffffff8000076a:	48 85 ff             	test   %rdi,%rdi
ffffffff8000076d:	0f 84 65 02 00 00    	je     ffffffff800009d8 <simple_strtoul+0x278>
ffffffff80000773:	89 d1                	mov    %edx,%ecx
ffffffff80000775:	4c 8d 15 94 58 00 00 	lea    0x5894(%rip),%r10        # ffffffff80006010 <AcpiGbl_Ctypes>
ffffffff8000077c:	49 89 f9             	mov    %rdi,%r9
ffffffff8000077f:	90                   	nop
ffffffff80000780:	45 0f b6 01          	movzbl (%r9),%r8d
ffffffff80000784:	49 83 f8 09          	cmp    $0x9,%r8
ffffffff80000788:	74 09                	je     ffffffff80000793 <simple_strtoul+0x33>
ffffffff8000078a:	43 0f b6 04 02       	movzbl (%r10,%r8,1),%eax
ffffffff8000078f:	24 08                	and    $0x8,%al
ffffffff80000791:	74 10                	je     ffffffff800007a3 <simple_strtoul+0x43>
ffffffff80000793:	49 83 f9 ff          	cmp    $0xffffffffffffffff,%r9
ffffffff80000797:	0f 84 36 02 00 00    	je     ffffffff800009d3 <simple_strtoul+0x273>
ffffffff8000079d:	49 83 c1 01          	add    $0x1,%r9
ffffffff800007a1:	eb dd                	jmp    ffffffff80000780 <simple_strtoul+0x20>
ffffffff800007a3:	41 80 f8 2d          	cmp    $0x2d,%r8b
ffffffff800007a7:	74 06                	je     ffffffff800007af <simple_strtoul+0x4f>
ffffffff800007a9:	41 80 f8 2b          	cmp    $0x2b,%r8b
ffffffff800007ad:	75 0e                	jne    ffffffff800007bd <simple_strtoul+0x5d>
ffffffff800007af:	49 83 f9 ff          	cmp    $0xffffffffffffffff,%r9
ffffffff800007b3:	0f 84 1a 02 00 00    	je     ffffffff800009d3 <simple_strtoul+0x273>
ffffffff800007b9:	49 83 c1 01          	add    $0x1,%r9
ffffffff800007bd:	85 c9                	test   %ecx,%ecx
ffffffff800007bf:	74 25                	je     ffffffff800007e6 <simple_strtoul+0x86>
ffffffff800007c1:	83 f9 01             	cmp    $0x1,%ecx
ffffffff800007c4:	0f 84 c5 00 00 00    	je     ffffffff8000088f <simple_strtoul+0x12f>
ffffffff800007ca:	83 f9 24             	cmp    $0x24,%ecx
ffffffff800007cd:	0f 87 bc 00 00 00    	ja     ffffffff8000088f <simple_strtoul+0x12f>
ffffffff800007d3:	83 f9 10             	cmp    $0x10,%ecx
ffffffff800007d6:	74 61                	je     ffffffff80000839 <simple_strtoul+0xd9>
ffffffff800007d8:	83 f9 08             	cmp    $0x8,%ecx
ffffffff800007db:	0f 84 c1 00 00 00    	je     ffffffff800008a2 <simple_strtoul+0x142>
ffffffff800007e1:	e9 da 00 00 00       	jmp    ffffffff800008c0 <simple_strtoul+0x160>
ffffffff800007e6:	b9 0a 00 00 00       	mov    $0xa,%ecx
ffffffff800007eb:	41 80 39 30          	cmpb   $0x30,(%r9)
ffffffff800007ef:	0f 85 cb 00 00 00    	jne    ffffffff800008c0 <simple_strtoul+0x160>
ffffffff800007f5:	49 83 f9 ff          	cmp    $0xffffffffffffffff,%r9
ffffffff800007f9:	0f 84 d4 01 00 00    	je     ffffffff800009d3 <simple_strtoul+0x273>
ffffffff800007ff:	49 8d 41 01          	lea    0x1(%r9),%rax
ffffffff80000803:	48 0f be 08          	movsbq (%rax),%rcx
ffffffff80000807:	0f b6 d1             	movzbl %cl,%edx
ffffffff8000080a:	4d 89 d3             	mov    %r10,%r11
ffffffff8000080d:	49 f7 d3             	not    %r11
ffffffff80000810:	4c 39 da             	cmp    %r11,%rdx
ffffffff80000813:	0f 87 ba 01 00 00    	ja     ffffffff800009d3 <simple_strtoul+0x273>
ffffffff80000819:	41 0f b6 14 12       	movzbl (%r10,%rdx,1),%edx
ffffffff8000081e:	c1 e2 05             	shl    $0x5,%edx
ffffffff80000821:	83 e2 20             	and    $0x20,%edx
ffffffff80000824:	01 ca                	add    %ecx,%edx
ffffffff80000826:	83 fa 78             	cmp    $0x78,%edx
ffffffff80000829:	75 74                	jne    ffffffff8000089f <simple_strtoul+0x13f>
ffffffff8000082b:	48 83 f8 ff          	cmp    $0xffffffffffffffff,%rax
ffffffff8000082f:	0f 84 9e 01 00 00    	je     ffffffff800009d3 <simple_strtoul+0x273>
ffffffff80000835:	49 83 c1 02          	add    $0x2,%r9
ffffffff80000839:	b9 10 00 00 00       	mov    $0x10,%ecx
ffffffff8000083e:	41 80 39 30          	cmpb   $0x30,(%r9)
ffffffff80000842:	75 7c                	jne    ffffffff800008c0 <simple_strtoul+0x160>
ffffffff80000844:	49 83 f9 ff          	cmp    $0xffffffffffffffff,%r9
ffffffff80000848:	0f 84 85 01 00 00    	je     ffffffff800009d3 <simple_strtoul+0x273>
ffffffff8000084e:	49 8d 41 01          	lea    0x1(%r9),%rax
ffffffff80000852:	48 0f be 10          	movsbq (%rax),%rdx
ffffffff80000856:	44 0f b6 da          	movzbl %dl,%r11d
ffffffff8000085a:	4c 89 d3             	mov    %r10,%rbx
ffffffff8000085d:	48 f7 d3             	not    %rbx
ffffffff80000860:	49 39 db             	cmp    %rbx,%r11
ffffffff80000863:	0f 87 6a 01 00 00    	ja     ffffffff800009d3 <simple_strtoul+0x273>
ffffffff80000869:	47 0f b6 1c 1a       	movzbl (%r10,%r11,1),%r11d
ffffffff8000086e:	41 c1 e3 05          	shl    $0x5,%r11d
ffffffff80000872:	41 83 e3 20          	and    $0x20,%r11d
ffffffff80000876:	41 01 d3             	add    %edx,%r11d
ffffffff80000879:	41 83 fb 78          	cmp    $0x78,%r11d
ffffffff8000087d:	75 3e                	jne    ffffffff800008bd <simple_strtoul+0x15d>
ffffffff8000087f:	48 83 f8 ff          	cmp    $0xffffffffffffffff,%rax
ffffffff80000883:	0f 84 4a 01 00 00    	je     ffffffff800009d3 <simple_strtoul+0x273>
ffffffff80000889:	49 83 c1 02          	add    $0x2,%r9
ffffffff8000088d:	eb 31                	jmp    ffffffff800008c0 <simple_strtoul+0x160>
ffffffff8000088f:	31 c9                	xor    %ecx,%ecx
ffffffff80000891:	48 85 f6             	test   %rsi,%rsi
ffffffff80000894:	0f 85 1a 01 00 00    	jne    ffffffff800009b4 <simple_strtoul+0x254>
ffffffff8000089a:	e9 1e 01 00 00       	jmp    ffffffff800009bd <simple_strtoul+0x25d>
ffffffff8000089f:	49 89 c1             	mov    %rax,%r9
ffffffff800008a2:	b9 08 00 00 00       	mov    $0x8,%ecx
ffffffff800008a7:	41 80 39 30          	cmpb   $0x30,(%r9)
ffffffff800008ab:	75 13                	jne    ffffffff800008c0 <simple_strtoul+0x160>
ffffffff800008ad:	49 83 f9 ff          	cmp    $0xffffffffffffffff,%r9
ffffffff800008b1:	0f 84 1c 01 00 00    	je     ffffffff800009d3 <simple_strtoul+0x273>
ffffffff800008b7:	49 83 c1 01          	add    $0x1,%r9
ffffffff800008bb:	eb 03                	jmp    ffffffff800008c0 <simple_strtoul+0x160>
ffffffff800008bd:	49 89 c1             	mov    %rax,%r9
ffffffff800008c0:	41 0f b6 01          	movzbl (%r9),%eax
ffffffff800008c4:	84 c0                	test   %al,%al
ffffffff800008c6:	0f 84 d8 00 00 00    	je     ffffffff800009a4 <simple_strtoul+0x244>
ffffffff800008cc:	31 ed                	xor    %ebp,%ebp
ffffffff800008ce:	4d 89 d6             	mov    %r10,%r14
ffffffff800008d1:	49 f7 d6             	not    %r14
ffffffff800008d4:	41 bf 01 00 00 00    	mov    $0x1,%r15d
ffffffff800008da:	45 31 db             	xor    %r11d,%r11d
ffffffff800008dd:	45 31 e4             	xor    %r12d,%r12d
ffffffff800008e0:	31 db                	xor    %ebx,%ebx
ffffffff800008e2:	66 2e 0f 1f 84 00 00 	cs nopw 0x0(%rax,%rax,1)
ffffffff800008e9:	00 00 00 
ffffffff800008ec:	0f 1f 40 00          	nopl   0x0(%rax)
ffffffff800008f0:	44 0f b6 e8          	movzbl %al,%r13d
ffffffff800008f4:	43 f6 04 2a 04       	testb  $0x4,(%r10,%r13,1)
ffffffff800008f9:	75 45                	jne    ffffffff80000940 <simple_strtoul+0x1e0>
ffffffff800008fb:	4d 39 f5             	cmp    %r14,%r13
ffffffff800008fe:	0f 87 cf 00 00 00    	ja     ffffffff800009d3 <simple_strtoul+0x273>
ffffffff80000904:	0f be d0             	movsbl %al,%edx
ffffffff80000907:	8d 42 e0             	lea    -0x20(%rdx),%eax
ffffffff8000090a:	43 f6 04 2a 02       	testb  $0x2,(%r10,%r13,1)
ffffffff8000090f:	0f 44 c2             	cmove  %edx,%eax
ffffffff80000912:	0f b6 d0             	movzbl %al,%edx
ffffffff80000915:	4c 39 f2             	cmp    %r14,%rdx
ffffffff80000918:	0f 87 b5 00 00 00    	ja     ffffffff800009d3 <simple_strtoul+0x273>
ffffffff8000091e:	41 f6 04 12 01       	testb  $0x1,(%r10,%rdx,1)
ffffffff80000923:	74 64                	je     ffffffff80000989 <simple_strtoul+0x229>
ffffffff80000925:	83 c0 c9             	add    $0xffffffc9,%eax
ffffffff80000928:	41 89 c5             	mov    %eax,%r13d
ffffffff8000092b:	41 39 cd             	cmp    %ecx,%r13d
ffffffff8000092e:	72 19                	jb     ffffffff80000949 <simple_strtoul+0x1e9>
ffffffff80000930:	eb 57                	jmp    ffffffff80000989 <simple_strtoul+0x229>
ffffffff80000932:	66 2e 0f 1f 84 00 00 	cs nopw 0x0(%rax,%rax,1)
ffffffff80000939:	00 00 00 
ffffffff8000093c:	0f 1f 40 00          	nopl   0x0(%rax)
ffffffff80000940:	41 83 c5 d0          	add    $0xffffffd0,%r13d
ffffffff80000944:	41 39 cd             	cmp    %ecx,%r13d
ffffffff80000947:	73 40                	jae    ffffffff80000989 <simple_strtoul+0x229>
ffffffff80000949:	49 83 f9 ff          	cmp    $0xffffffffffffffff,%r9
ffffffff8000094d:	0f 84 80 00 00 00    	je     ffffffff800009d3 <simple_strtoul+0x273>
ffffffff80000953:	44 89 e8             	mov    %r13d,%eax
ffffffff80000956:	f7 d0                	not    %eax
ffffffff80000958:	31 d2                	xor    %edx,%edx
ffffffff8000095a:	f7 f1                	div    %ecx
ffffffff8000095c:	44 89 e2             	mov    %r12d,%edx
ffffffff8000095f:	0f af d1             	imul   %ecx,%edx
ffffffff80000962:	44 01 ea             	add    %r13d,%edx
ffffffff80000965:	41 39 c4             	cmp    %eax,%r12d
ffffffff80000968:	41 0f 47 df          	cmova  %r15d,%ebx
ffffffff8000096c:	0f 47 d5             	cmova  %ebp,%edx
ffffffff8000096f:	45 0f 46 df          	cmovbe %r15d,%r11d
ffffffff80000973:	41 0f b6 41 01       	movzbl 0x1(%r9),%eax
ffffffff80000978:	49 83 c1 01          	add    $0x1,%r9
ffffffff8000097c:	41 89 d4             	mov    %edx,%r12d
ffffffff8000097f:	84 c0                	test   %al,%al
ffffffff80000981:	0f 85 69 ff ff ff    	jne    ffffffff800008f0 <simple_strtoul+0x190>
ffffffff80000987:	eb 03                	jmp    ffffffff8000098c <simple_strtoul+0x22c>
ffffffff80000989:	44 89 e2             	mov    %r12d,%edx
ffffffff8000098c:	83 fb 01             	cmp    $0x1,%ebx
ffffffff8000098f:	b9 ff ff ff ff       	mov    $0xffffffff,%ecx
ffffffff80000994:	0f 45 ca             	cmovne %edx,%ecx
ffffffff80000997:	41 09 d3             	or     %edx,%r11d
ffffffff8000099a:	0f 94 c0             	sete   %al
ffffffff8000099d:	48 85 f6             	test   %rsi,%rsi
ffffffff800009a0:	75 0b                	jne    ffffffff800009ad <simple_strtoul+0x24d>
ffffffff800009a2:	eb 19                	jmp    ffffffff800009bd <simple_strtoul+0x25d>
ffffffff800009a4:	b0 01                	mov    $0x1,%al
ffffffff800009a6:	31 c9                	xor    %ecx,%ecx
ffffffff800009a8:	48 85 f6             	test   %rsi,%rsi
ffffffff800009ab:	74 10                	je     ffffffff800009bd <simple_strtoul+0x25d>
ffffffff800009ad:	84 c0                	test   %al,%al
ffffffff800009af:	75 03                	jne    ffffffff800009b4 <simple_strtoul+0x254>
ffffffff800009b1:	4c 89 cf             	mov    %r9,%rdi
ffffffff800009b4:	40 f6 c6 07          	test   $0x7,%sil
ffffffff800009b8:	75 1e                	jne    ffffffff800009d8 <simple_strtoul+0x278>
ffffffff800009ba:	48 89 3e             	mov    %rdi,(%rsi)
ffffffff800009bd:	89 c8                	mov    %ecx,%eax
ffffffff800009bf:	f7 d8                	neg    %eax
ffffffff800009c1:	41 80 f8 2d          	cmp    $0x2d,%r8b
ffffffff800009c5:	0f 45 c1             	cmovne %ecx,%eax
ffffffff800009c8:	5b                   	pop    %rbx
ffffffff800009c9:	41 5c                	pop    %r12
ffffffff800009cb:	41 5d                	pop    %r13
ffffffff800009cd:	41 5e                	pop    %r14
ffffffff800009cf:	41 5f                	pop    %r15
ffffffff800009d1:	5d                   	pop    %rbp
ffffffff800009d2:	c3                   	ret
ffffffff800009d3:	67 0f b9 40 13       	ud1    0x13(%eax),%eax
ffffffff800009d8:	67 0f b9 40 16       	ud1    0x16(%eax),%eax
ffffffff800009dd:	0f 1f 00             	nopl   (%rax)

ffffffff800009e0 <tolower>:
ffffffff800009e0:	40 0f b6 c7          	movzbl %dil,%eax
ffffffff800009e4:	48 8d 0d 25 56 00 00 	lea    0x5625(%rip),%rcx        # ffffffff80006010 <AcpiGbl_Ctypes>
ffffffff800009eb:	48 89 ca             	mov    %rcx,%rdx
ffffffff800009ee:	48 f7 d2             	not    %rdx
ffffffff800009f1:	48 39 d0             	cmp    %rdx,%rax
ffffffff800009f4:	77 0e                	ja     ffffffff80000a04 <tolower+0x24>
ffffffff800009f6:	f6 04 01 01          	testb  $0x1,(%rcx,%rax,1)
ffffffff800009fa:	74 05                	je     ffffffff80000a01 <tolower+0x21>
ffffffff800009fc:	83 c7 20             	add    $0x20,%edi
ffffffff800009ff:	70 08                	jo     ffffffff80000a09 <tolower+0x29>
ffffffff80000a01:	89 f8                	mov    %edi,%eax
ffffffff80000a03:	c3                   	ret
ffffffff80000a04:	67 0f b9 40 13       	ud1    0x13(%eax),%eax
ffffffff80000a09:	67 0f b9 00          	ud1    (%eax),%eax
ffffffff80000a0d:	0f 1f 00             	nopl   (%rax)

ffffffff80000a10 <toupper>:
ffffffff80000a10:	40 0f b6 c7          	movzbl %dil,%eax
ffffffff80000a14:	48 8d 0d f5 55 00 00 	lea    0x55f5(%rip),%rcx        # ffffffff80006010 <AcpiGbl_Ctypes>
ffffffff80000a1b:	48 89 ca             	mov    %rcx,%rdx
ffffffff80000a1e:	48 f7 d2             	not    %rdx
ffffffff80000a21:	48 39 d0             	cmp    %rdx,%rax
ffffffff80000a24:	77 0e                	ja     ffffffff80000a34 <toupper+0x24>
ffffffff80000a26:	f6 04 01 02          	testb  $0x2,(%rcx,%rax,1)
ffffffff80000a2a:	74 05                	je     ffffffff80000a31 <toupper+0x21>
ffffffff80000a2c:	83 c7 e0             	add    $0xffffffe0,%edi
ffffffff80000a2f:	70 08                	jo     ffffffff80000a39 <toupper+0x29>
ffffffff80000a31:	89 f8                	mov    %edi,%eax
ffffffff80000a33:	c3                   	ret
ffffffff80000a34:	67 0f b9 40 13       	ud1    0x13(%eax),%eax
ffffffff80000a39:	67 0f b9 40 15       	ud1    0x15(%eax),%eax
ffffffff80000a3e:	cc                   	int3
ffffffff80000a3f:	cc                   	int3

ffffffff80000a40 <jump_to_user_mode>:
ffffffff80000a40:	48 8b 87 90 00 00 00 	mov    0x90(%rdi),%rax
ffffffff80000a47:	0f 22 d8             	mov    %rax,%cr3
ffffffff80000a4a:	48 8b 07             	mov    (%rdi),%rax
ffffffff80000a4d:	48 8b 5f 08          	mov    0x8(%rdi),%rbx
ffffffff80000a51:	48 8b 57 18          	mov    0x18(%rdi),%rdx
ffffffff80000a55:	48 8b 77 20          	mov    0x20(%rdi),%rsi
ffffffff80000a59:	48 8b 67 30          	mov    0x30(%rdi),%rsp
ffffffff80000a5d:	48 8b 6f 38          	mov    0x38(%rdi),%rbp
ffffffff80000a61:	4c 8b 47 40          	mov    0x40(%rdi),%r8
ffffffff80000a65:	4c 8b 4f 48          	mov    0x48(%rdi),%r9
ffffffff80000a69:	4c 8b 57 50          	mov    0x50(%rdi),%r10
ffffffff80000a6d:	4c 8b 67 60          	mov    0x60(%rdi),%r12
ffffffff80000a71:	4c 8b 6f 68          	mov    0x68(%rdi),%r13
ffffffff80000a75:	4c 8b 77 70          	mov    0x70(%rdi),%r14
ffffffff80000a79:	4c 8b 7f 78          	mov    0x78(%rdi),%r15
ffffffff80000a7d:	48 8b 8f 80 00 00 00 	mov    0x80(%rdi),%rcx
ffffffff80000a84:	4c 8b 9f 88 00 00 00 	mov    0x88(%rdi),%r11
ffffffff80000a8b:	48 8b 7f 28          	mov    0x28(%rdi),%rdi
ffffffff80000a8f:	48 0f 07             	sysretq

ffffffff80000a92 <syscall_wrapper>:
ffffffff80000a92:	fa                   	cli
ffffffff80000a93:	48 89 e0             	mov    %rsp,%rax
ffffffff80000a96:	0f 01 f8             	swapgs
ffffffff80000a99:	65 48 8b 24 25 00 00 	mov    %gs:0x0,%rsp
ffffffff80000aa0:	00 00 
ffffffff80000aa2:	50                   	push   %rax
ffffffff80000aa3:	41 53                	push   %r11
ffffffff80000aa5:	51                   	push   %rcx
ffffffff80000aa6:	6a 00                	push   $0x0
ffffffff80000aa8:	4c 89 d1             	mov    %r10,%rcx
ffffffff80000aab:	e8 e0 20 00 00       	call   ffffffff80002b90 <syscall_handler>
ffffffff80000ab0:	59                   	pop    %rcx
ffffffff80000ab1:	59                   	pop    %rcx
ffffffff80000ab2:	41 5b                	pop    %r11
ffffffff80000ab4:	5c                   	pop    %rsp
ffffffff80000ab5:	48 c7 c7 00 00 00 00 	mov    $0x0,%rdi
ffffffff80000abc:	48 c7 c6 00 00 00 00 	mov    $0x0,%rsi
ffffffff80000ac3:	48 c7 c2 00 00 00 00 	mov    $0x0,%rdx
ffffffff80000aca:	49 c7 c0 00 00 00 00 	mov    $0x0,%r8
ffffffff80000ad1:	49 c7 c1 00 00 00 00 	mov    $0x0,%r9
ffffffff80000ad8:	49 c7 c2 00 00 00 00 	mov    $0x0,%r10
ffffffff80000adf:	0f 01 f8             	swapgs
ffffffff80000ae2:	fb                   	sti
ffffffff80000ae3:	48 0f 07             	sysretq

ffffffff80000ae6 <lgdt>:
ffffffff80000ae6:	0f 01 17             	lgdt   (%rdi)
ffffffff80000ae9:	c3                   	ret

ffffffff80000aea <sgdt>:
ffffffff80000aea:	0f 01 07             	sgdt   (%rdi)
ffffffff80000aed:	c3                   	ret

ffffffff80000aee <flushTss>:
ffffffff80000aee:	0f 00 df             	ltr    %edi
ffffffff80000af1:	c3                   	ret

ffffffff80000af2 <setDataSegmentRegisters>:
ffffffff80000af2:	8e c7                	mov    %edi,%es
ffffffff80000af4:	8e d7                	mov    %edi,%ss
ffffffff80000af6:	8e df                	mov    %edi,%ds
ffffffff80000af8:	8e e7                	mov    %edi,%fs
ffffffff80000afa:	8e ef                	mov    %edi,%gs
ffffffff80000afc:	c3                   	ret

ffffffff80000afd <setCodeSegmentRegisters>:
ffffffff80000afd:	57                   	push   %rdi
ffffffff80000afe:	56                   	push   %rsi
ffffffff80000aff:	48 cb                	lretq

ffffffff80000b01 <set_code_segment_register_2>:
ffffffff80000b01:	c3                   	ret

ffffffff80000b02 <lidt>:
ffffffff80000b02:	0f 01 1f             	lidt   (%rdi)
ffffffff80000b05:	c3                   	ret

ffffffff80000b06 <readMsr>:
ffffffff80000b06:	89 f9                	mov    %edi,%ecx
ffffffff80000b08:	0f 32                	rdmsr
ffffffff80000b0a:	48 c1 e2 20          	shl    $0x20,%rdx
ffffffff80000b0e:	48 09 d0             	or     %rdx,%rax
ffffffff80000b11:	c3                   	ret

ffffffff80000b12 <writeMsr>:
ffffffff80000b12:	89 f9                	mov    %edi,%ecx
ffffffff80000b14:	48 89 f0             	mov    %rsi,%rax
ffffffff80000b17:	48 89 f2             	mov    %rsi,%rdx
ffffffff80000b1a:	48 c1 ea 20          	shr    $0x20,%rdx
ffffffff80000b1e:	0f 30                	wrmsr
ffffffff80000b20:	c3                   	ret

ffffffff80000b21 <get_cr3>:
ffffffff80000b21:	0f 20 d8             	mov    %cr3,%rax
ffffffff80000b24:	c3                   	ret

ffffffff80000b25 <set_cr3>:
ffffffff80000b25:	0f 22 df             	mov    %rdi,%cr3
ffffffff80000b28:	c3                   	ret

ffffffff80000b29 <get_cr4>:
ffffffff80000b29:	0f 20 e0             	mov    %cr4,%rax
ffffffff80000b2c:	c3                   	ret

ffffffff80000b2d <set_cr4>:
ffffffff80000b2d:	0f 22 e7             	mov    %rdi,%cr4
ffffffff80000b30:	c3                   	ret

ffffffff80000b31 <get_rflags>:
ffffffff80000b31:	9c                   	pushf
ffffffff80000b32:	58                   	pop    %rax
ffffffff80000b33:	c3                   	ret

ffffffff80000b34 <invalidatePage>:
ffffffff80000b34:	0f 01 3f             	invlpg (%rdi)
ffffffff80000b37:	c3                   	ret
ffffffff80000b38:	0f 1f 84 00 00 00 00 	nopl   0x0(%rax,%rax,1)
ffffffff80000b3f:	00 

ffffffff80000b40 <_start>:
ffffffff80000b40:	50                   	push   %rax
ffffffff80000b41:	48 83 3d bf 95 01 00 	cmpq   $0x0,0x195bf(%rip)        # ffffffff8001a108 <base_revision+0x10>
ffffffff80000b48:	00 
ffffffff80000b49:	74 08                	je     ffffffff80000b53 <_start+0x13>
ffffffff80000b4b:	0f 1f 44 00 00       	nopl   0x0(%rax,%rax,1)
ffffffff80000b50:	f4                   	hlt
ffffffff80000b51:	eb fd                	jmp    ffffffff80000b50 <_start+0x10>
ffffffff80000b53:	66 ba f9 03          	mov    $0x3f9,%dx
ffffffff80000b57:	31 c0                	xor    %eax,%eax
ffffffff80000b59:	ee                   	out    %al,(%dx)
ffffffff80000b5a:	66 ba fb 03          	mov    $0x3fb,%dx
ffffffff80000b5e:	b0 80                	mov    $0x80,%al
ffffffff80000b60:	ee                   	out    %al,(%dx)
ffffffff80000b61:	66 ba f8 03          	mov    $0x3f8,%dx
ffffffff80000b65:	b0 03                	mov    $0x3,%al
ffffffff80000b67:	ee                   	out    %al,(%dx)
ffffffff80000b68:	66 ba f9 03          	mov    $0x3f9,%dx
ffffffff80000b6c:	31 c0                	xor    %eax,%eax
ffffffff80000b6e:	ee                   	out    %al,(%dx)
ffffffff80000b6f:	66 ba fb 03          	mov    $0x3fb,%dx
ffffffff80000b73:	b0 03                	mov    $0x3,%al
ffffffff80000b75:	ee                   	out    %al,(%dx)
ffffffff80000b76:	66 ba fa 03          	mov    $0x3fa,%dx
ffffffff80000b7a:	b0 c7                	mov    $0xc7,%al
ffffffff80000b7c:	ee                   	out    %al,(%dx)
ffffffff80000b7d:	66 ba fc 03          	mov    $0x3fc,%dx
ffffffff80000b81:	b0 0f                	mov    $0xf,%al
ffffffff80000b83:	ee                   	out    %al,(%dx)
ffffffff80000b84:	48 8b 05 9d 94 01 00 	mov    0x1949d(%rip),%rax        # ffffffff8001a028 <framebuffer_request+0x28>
ffffffff80000b8b:	48 85 c0             	test   %rax,%rax
ffffffff80000b8e:	0f 84 9c 00 00 00    	je     ffffffff80000c30 <_start+0xf0>
ffffffff80000b94:	48 83 78 08 00       	cmpq   $0x0,0x8(%rax)
ffffffff80000b99:	0f 84 94 00 00 00    	je     ffffffff80000c33 <_start+0xf3>
ffffffff80000b9f:	48 8d 0d 82 55 00 00 	lea    0x5582(%rip),%rcx        # ffffffff80006128 <framebuffer-log.font_file>
ffffffff80000ba6:	48 83 c1 20          	add    $0x20,%rcx
ffffffff80000baa:	0f 82 93 00 00 00    	jb     ffffffff80000c43 <_start+0x103>
ffffffff80000bb0:	0f 84 9e 00 00 00    	je     ffffffff80000c54 <_start+0x114>
ffffffff80000bb6:	48 89 ca             	mov    %rcx,%rdx
ffffffff80000bb9:	48 81 c2 90 c8 00 00 	add    $0xc890,%rdx
ffffffff80000bc0:	0f 82 7d 00 00 00    	jb     ffffffff80000c43 <_start+0x103>
ffffffff80000bc6:	48 8b 40 10          	mov    0x10(%rax),%rax
ffffffff80000bca:	48 8b 00             	mov    (%rax),%rax
ffffffff80000bcd:	48 8b 30             	mov    (%rax),%rsi
ffffffff80000bd0:	48 8b 78 08          	mov    0x8(%rax),%rdi
ffffffff80000bd4:	4c 8b 40 18          	mov    0x18(%rax),%r8
ffffffff80000bd8:	48 8b 40 10          	mov    0x10(%rax),%rax
ffffffff80000bdc:	48 89 0d 2d 95 01 00 	mov    %rcx,0x1952d(%rip)        # ffffffff8001a110 <framebuffer-log.context>
ffffffff80000be3:	48 89 15 36 95 01 00 	mov    %rdx,0x19536(%rip)        # ffffffff8001a120 <framebuffer-log.context+0x10>
ffffffff80000bea:	48 89 35 6f 95 01 00 	mov    %rsi,0x1956f(%rip)        # ffffffff8001a160 <framebuffer-log.context+0x50>
ffffffff80000bf1:	4c 89 05 70 95 01 00 	mov    %r8,0x19570(%rip)        # ffffffff8001a168 <framebuffer-log.context+0x58>
ffffffff80000bf8:	48 89 3d 71 95 01 00 	mov    %rdi,0x19571(%rip)        # ffffffff8001a170 <framebuffer-log.context+0x60>
ffffffff80000bff:	48 89 05 72 95 01 00 	mov    %rax,0x19572(%rip)        # ffffffff8001a178 <framebuffer-log.context+0x68>
ffffffff80000c06:	48 8b 05 4b 94 01 00 	mov    0x1944b(%rip),%rax        # ffffffff8001a058 <hhdm_request+0x28>
ffffffff80000c0d:	48 85 c0             	test   %rax,%rax
ffffffff80000c10:	74 1e                	je     ffffffff80000c30 <_start+0xf0>
ffffffff80000c12:	48 8b 0d 6f 94 01 00 	mov    0x1946f(%rip),%rcx        # ffffffff8001a088 <memory_map_request+0x28>
ffffffff80000c19:	48 85 c9             	test   %rcx,%rcx
ffffffff80000c1c:	74 12                	je     ffffffff80000c30 <_start+0xf0>
ffffffff80000c1e:	48 8b 15 93 94 01 00 	mov    0x19493(%rip),%rdx        # ffffffff8001a0b8 <rsdp_request+0x28>
ffffffff80000c25:	48 85 d2             	test   %rdx,%rdx
ffffffff80000c28:	75 3b                	jne    ffffffff80000c65 <_start+0x125>
ffffffff80000c2a:	66 0f 1f 44 00 00    	nopw   0x0(%rax,%rax,1)
ffffffff80000c30:	f4                   	hlt
ffffffff80000c31:	eb fd                	jmp    ffffffff80000c30 <_start+0xf0>
ffffffff80000c33:	e8 b8 3a 00 00       	call   ffffffff800046f0 <log.scoped(.main).err__anon_1107>
ffffffff80000c38:	0f 1f 84 00 00 00 00 	nopl   0x0(%rax,%rax,1)
ffffffff80000c3f:	00 
ffffffff80000c40:	f4                   	hlt
ffffffff80000c41:	eb fd                	jmp    ffffffff80000c40 <_start+0x100>
ffffffff80000c43:	48 8d 3d 03 7f 01 00 	lea    0x17f03(%rip),%rdi        # ffffffff80018b4d <__anon_1411>
ffffffff80000c4a:	be 10 00 00 00       	mov    $0x10,%esi
ffffffff80000c4f:	e8 3c 00 00 00       	call   ffffffff80000c90 <main.panic>
ffffffff80000c54:	48 8d 3d 7c 7f 01 00 	lea    0x17f7c(%rip),%rdi        # ffffffff80018bd7 <__anon_1415>
ffffffff80000c5b:	be 1e 00 00 00       	mov    $0x1e,%esi
ffffffff80000c60:	e8 2b 00 00 00       	call   ffffffff80000c90 <main.panic>
ffffffff80000c65:	f6 42 08 03          	testb  $0x3,0x8(%rdx)
ffffffff80000c69:	75 11                	jne    ffffffff80000c7c <_start+0x13c>
ffffffff80000c6b:	48 8b 51 08          	mov    0x8(%rcx),%rdx
ffffffff80000c6f:	48 8b 71 10          	mov    0x10(%rcx),%rsi
ffffffff80000c73:	48 8b 78 08          	mov    0x8(%rax),%rdi
ffffffff80000c77:	e8 b4 00 00 00       	call   ffffffff80000d30 <main.main>
ffffffff80000c7c:	48 8d 3d db 7e 01 00 	lea    0x17edb(%rip),%rdi        # ffffffff80018b5e <__anon_1328>
ffffffff80000c83:	be 13 00 00 00       	mov    $0x13,%esi
ffffffff80000c88:	e8 03 00 00 00       	call   ffffffff80000c90 <main.panic>
ffffffff80000c8d:	0f 1f 00             	nopl   (%rax)

ffffffff80000c90 <main.panic>:
ffffffff80000c90:	41 56                	push   %r14
ffffffff80000c92:	53                   	push   %rbx
ffffffff80000c93:	48 83 ec 18          	sub    $0x18,%rsp
ffffffff80000c97:	48 89 f3             	mov    %rsi,%rbx
ffffffff80000c9a:	49 89 fe             	mov    %rdi,%r14
ffffffff80000c9d:	48 8d 05 28 7f 01 00 	lea    0x17f28(%rip),%rax        # ffffffff80018bcc <__anon_3455>
ffffffff80000ca4:	48 89 44 24 08       	mov    %rax,0x8(%rsp)
ffffffff80000ca9:	48 c7 44 24 10 05 00 	movq   $0x5,0x10(%rsp)
ffffffff80000cb0:	00 00 
ffffffff80000cb2:	48 8d 3d b7 a3 01 00 	lea    0x1a3b7(%rip),%rdi        # ffffffff8001b070 <x64.tss.tss_iopb+0x70>
ffffffff80000cb9:	48 8d 74 24 08       	lea    0x8(%rsp),%rsi
ffffffff80000cbe:	e8 0d 28 00 00       	call   ffffffff800034d0 <io.Writer.print__anon_2200>
ffffffff80000cc3:	66 85 c0             	test   %ax,%ax
ffffffff80000cc6:	75 4b                	jne    ffffffff80000d13 <main.panic+0x83>
ffffffff80000cc8:	66 ba f8 03          	mov    $0x3f8,%dx
ffffffff80000ccc:	b0 70                	mov    $0x70,%al
ffffffff80000cce:	ee                   	out    %al,(%dx)
ffffffff80000ccf:	b0 61                	mov    $0x61,%al
ffffffff80000cd1:	ee                   	out    %al,(%dx)
ffffffff80000cd2:	b0 6e                	mov    $0x6e,%al
ffffffff80000cd4:	ee                   	out    %al,(%dx)
ffffffff80000cd5:	b0 69                	mov    $0x69,%al
ffffffff80000cd7:	ee                   	out    %al,(%dx)
ffffffff80000cd8:	b0 63                	mov    $0x63,%al
ffffffff80000cda:	ee                   	out    %al,(%dx)
ffffffff80000cdb:	b0 3a                	mov    $0x3a,%al
ffffffff80000cdd:	ee                   	out    %al,(%dx)
ffffffff80000cde:	b0 20                	mov    $0x20,%al
ffffffff80000ce0:	ee                   	out    %al,(%dx)
ffffffff80000ce1:	48 8d 15 18 7e 01 00 	lea    0x17e18(%rip),%rdx        # ffffffff80018b00 <__anon_5249+0x9>
ffffffff80000ce8:	48 8d 0d 81 a3 01 00 	lea    0x1a381(%rip),%rcx        # ffffffff8001b070 <x64.tss.tss_iopb+0x70>
ffffffff80000cef:	4c 89 f7             	mov    %r14,%rdi
ffffffff80000cf2:	48 89 de             	mov    %rbx,%rsi
ffffffff80000cf5:	e8 86 2c 00 00       	call   ffffffff80003980 <fmt.formatBuf__anon_2525>
ffffffff80000cfa:	66 85 c0             	test   %ax,%ax
ffffffff80000cfd:	75 14                	jne    ffffffff80000d13 <main.panic+0x83>
ffffffff80000cff:	66 ba f8 03          	mov    $0x3f8,%dx
ffffffff80000d03:	b0 0a                	mov    $0xa,%al
ffffffff80000d05:	ee                   	out    %al,(%dx)
ffffffff80000d06:	66 2e 0f 1f 84 00 00 	cs nopw 0x0(%rax,%rax,1)
ffffffff80000d0d:	00 00 00 
ffffffff80000d10:	f4                   	hlt
ffffffff80000d11:	eb fd                	jmp    ffffffff80000d10 <main.panic+0x80>
ffffffff80000d13:	48 8d 3d 07 7f 01 00 	lea    0x17f07(%rip),%rdi        # ffffffff80018c21 <__anon_3293>
ffffffff80000d1a:	be 12 00 00 00       	mov    $0x12,%esi
ffffffff80000d1f:	e8 6c ff ff ff       	call   ffffffff80000c90 <main.panic>
ffffffff80000d24:	66 2e 0f 1f 84 00 00 	cs nopw 0x0(%rax,%rax,1)
ffffffff80000d2b:	00 00 00 
ffffffff80000d2e:	66 90                	xchg   %ax,%ax

ffffffff80000d30 <main.main>:
ffffffff80000d30:	55                   	push   %rbp
ffffffff80000d31:	41 57                	push   %r15
ffffffff80000d33:	41 56                	push   %r14
ffffffff80000d35:	41 55                	push   %r13
ffffffff80000d37:	41 54                	push   %r12
ffffffff80000d39:	53                   	push   %rbx
ffffffff80000d3a:	48 81 ec 68 01 00 00 	sub    $0x168,%rsp
ffffffff80000d41:	48 89 7c 24 58       	mov    %rdi,0x58(%rsp)
ffffffff80000d46:	48 89 7c 24 78       	mov    %rdi,0x78(%rsp)
ffffffff80000d4b:	48 85 d2             	test   %rdx,%rdx
ffffffff80000d4e:	0f 84 88 00 00 00    	je     ffffffff80000ddc <main.main+0xac>
ffffffff80000d54:	31 c0                	xor    %eax,%eax
ffffffff80000d56:	31 ff                	xor    %edi,%edi
ffffffff80000d58:	eb 2d                	jmp    ffffffff80000d87 <main.main+0x57>
ffffffff80000d5a:	66 0f 1f 44 00 00    	nopw   0x0(%rax,%rax,1)
ffffffff80000d60:	48 89 f9             	mov    %rdi,%rcx
ffffffff80000d63:	48 83 c0 01          	add    $0x1,%rax
ffffffff80000d67:	48 39 c2             	cmp    %rax,%rdx
ffffffff80000d6a:	75 1b                	jne    ffffffff80000d87 <main.main+0x57>
ffffffff80000d6c:	eb 70                	jmp    ffffffff80000dde <main.main+0xae>
ffffffff80000d6e:	66 90                	xchg   %ax,%ax
ffffffff80000d70:	49 c1 e8 0c          	shr    $0xc,%r8
ffffffff80000d74:	4d 89 01             	mov    %r8,(%r9)
ffffffff80000d77:	49 89 79 08          	mov    %rdi,0x8(%r9)
ffffffff80000d7b:	48 89 cf             	mov    %rcx,%rdi
ffffffff80000d7e:	48 83 c0 01          	add    $0x1,%rax
ffffffff80000d82:	48 39 c2             	cmp    %rax,%rdx
ffffffff80000d85:	74 57                	je     ffffffff80000dde <main.main+0xae>
ffffffff80000d87:	4c 8b 04 c6          	mov    (%rsi,%rax,8),%r8
ffffffff80000d8b:	49 83 78 10 00       	cmpq   $0x0,0x10(%r8)
ffffffff80000d90:	75 ce                	jne    ffffffff80000d60 <main.main+0x30>
ffffffff80000d92:	49 8b 08             	mov    (%r8),%rcx
ffffffff80000d95:	4d 8b 40 08          	mov    0x8(%r8),%r8
ffffffff80000d99:	49 89 c9             	mov    %rcx,%r9
ffffffff80000d9c:	48 85 ff             	test   %rdi,%rdi
ffffffff80000d9f:	74 1c                	je     ffffffff80000dbd <main.main+0x8d>
ffffffff80000da1:	4c 03 4c 24 58       	add    0x58(%rsp),%r9
ffffffff80000da6:	0f 82 67 1d 00 00    	jb     ffffffff80002b13 <main.main+0x1de3>
ffffffff80000dac:	0f 84 72 1d 00 00    	je     ffffffff80002b24 <main.main+0x1df4>
ffffffff80000db2:	41 f6 c1 0f          	test   $0xf,%r9b
ffffffff80000db6:	74 b8                	je     ffffffff80000d70 <main.main+0x40>
ffffffff80000db8:	e9 78 1d 00 00       	jmp    ffffffff80002b35 <main.main+0x1e05>
ffffffff80000dbd:	4c 03 4c 24 58       	add    0x58(%rsp),%r9
ffffffff80000dc2:	0f 82 4b 1d 00 00    	jb     ffffffff80002b13 <main.main+0x1de3>
ffffffff80000dc8:	0f 84 56 1d 00 00    	je     ffffffff80002b24 <main.main+0x1df4>
ffffffff80000dce:	41 f6 c1 0f          	test   $0xf,%r9b
ffffffff80000dd2:	0f 85 5d 1d 00 00    	jne    ffffffff80002b35 <main.main+0x1e05>
ffffffff80000dd8:	31 ff                	xor    %edi,%edi
ffffffff80000dda:	eb 94                	jmp    ffffffff80000d70 <main.main+0x40>
ffffffff80000ddc:	31 c9                	xor    %ecx,%ecx
ffffffff80000dde:	48 89 4c 24 70       	mov    %rcx,0x70(%rsp)
ffffffff80000de3:	48 8d 05 e8 7d 01 00 	lea    0x17de8(%rip),%rax        # ffffffff80018bd2 <__anon_3536>
ffffffff80000dea:	48 89 04 24          	mov    %rax,(%rsp)
ffffffff80000dee:	48 c7 44 24 08 04 00 	movq   $0x4,0x8(%rsp)
ffffffff80000df5:	00 00 
ffffffff80000df7:	48 8d 3d 72 a2 01 00 	lea    0x1a272(%rip),%rdi        # ffffffff8001b070 <x64.tss.tss_iopb+0x70>
ffffffff80000dfe:	48 89 e6             	mov    %rsp,%rsi
ffffffff80000e01:	e8 ca 26 00 00       	call   ffffffff800034d0 <io.Writer.print__anon_2200>
ffffffff80000e06:	66 85 c0             	test   %ax,%ax
ffffffff80000e09:	0f 85 48 1d 00 00    	jne    ffffffff80002b57 <main.main+0x1e27>
ffffffff80000e0f:	66 ba f8 03          	mov    $0x3f8,%dx
ffffffff80000e13:	b0 6c                	mov    $0x6c,%al
ffffffff80000e15:	ee                   	out    %al,(%dx)
ffffffff80000e16:	b0 6f                	mov    $0x6f,%al
ffffffff80000e18:	ee                   	out    %al,(%dx)
ffffffff80000e19:	b0 61                	mov    $0x61,%al
ffffffff80000e1b:	ee                   	out    %al,(%dx)
ffffffff80000e1c:	b0 64                	mov    $0x64,%al
ffffffff80000e1e:	ee                   	out    %al,(%dx)
ffffffff80000e1f:	b0 69                	mov    $0x69,%al
ffffffff80000e21:	ee                   	out    %al,(%dx)
ffffffff80000e22:	b0 6e                	mov    $0x6e,%al
ffffffff80000e24:	ee                   	out    %al,(%dx)
ffffffff80000e25:	b0 67                	mov    $0x67,%al
ffffffff80000e27:	ee                   	out    %al,(%dx)
ffffffff80000e28:	b0 20                	mov    $0x20,%al
ffffffff80000e2a:	ee                   	out    %al,(%dx)
ffffffff80000e2b:	b0 67                	mov    $0x67,%al
ffffffff80000e2d:	ee                   	out    %al,(%dx)
ffffffff80000e2e:	b0 64                	mov    $0x64,%al
ffffffff80000e30:	ee                   	out    %al,(%dx)
ffffffff80000e31:	b0 74                	mov    $0x74,%al
ffffffff80000e33:	ee                   	out    %al,(%dx)
ffffffff80000e34:	b0 0a                	mov    $0xa,%al
ffffffff80000e36:	ee                   	out    %al,(%dx)
ffffffff80000e37:	48 c7 05 c6 c1 01 00 	movq   $0x0,0x1c1c6(%rip)        # ffffffff8001d008 <x64.gdt.Gdt>
ffffffff80000e3e:	00 00 00 00 
ffffffff80000e42:	48 b8 ff ff 00 00 00 	movabs $0xaf9b000000ffff,%rax
ffffffff80000e49:	9b af 00 
ffffffff80000e4c:	48 89 05 bd c1 01 00 	mov    %rax,0x1c1bd(%rip)        # ffffffff8001d010 <x64.gdt.Gdt+0x8>
ffffffff80000e53:	48 b8 ff ff 00 00 00 	movabs $0xcf93000000ffff,%rax
ffffffff80000e5a:	93 cf 00 
ffffffff80000e5d:	48 89 05 b4 c1 01 00 	mov    %rax,0x1c1b4(%rip)        # ffffffff8001d018 <x64.gdt.Gdt+0x10>
ffffffff80000e64:	48 b8 ff ff 00 00 00 	movabs $0xaffb000000ffff,%rax
ffffffff80000e6b:	fb af 00 
ffffffff80000e6e:	48 89 05 ab c1 01 00 	mov    %rax,0x1c1ab(%rip)        # ffffffff8001d020 <x64.gdt.Gdt+0x18>
ffffffff80000e75:	48 b8 ff ff 00 00 00 	movabs $0xcff3000000ffff,%rax
ffffffff80000e7c:	f3 cf 00 
ffffffff80000e7f:	48 89 05 a2 c1 01 00 	mov    %rax,0x1c1a2(%rip)        # ffffffff8001d028 <x64.gdt.Gdt+0x20>
ffffffff80000e86:	b0 5b                	mov    $0x5b,%al
ffffffff80000e88:	ee                   	out    %al,(%dx)
ffffffff80000e89:	48 8d 3d 42 7d 01 00 	lea    0x17d42(%rip),%rdi        # ffffffff80018bd2 <__anon_3536>
ffffffff80000e90:	48 8d 15 69 7c 01 00 	lea    0x17c69(%rip),%rdx        # ffffffff80018b00 <__anon_5249+0x9>
ffffffff80000e97:	48 8d 0d d2 a1 01 00 	lea    0x1a1d2(%rip),%rcx        # ffffffff8001b070 <x64.tss.tss_iopb+0x70>
ffffffff80000e9e:	be 04 00 00 00       	mov    $0x4,%esi
ffffffff80000ea3:	e8 d8 2a 00 00       	call   ffffffff80003980 <fmt.formatBuf__anon_2525>
ffffffff80000ea8:	66 85 c0             	test   %ax,%ax
ffffffff80000eab:	0f 85 a6 1c 00 00    	jne    ffffffff80002b57 <main.main+0x1e27>
ffffffff80000eb1:	66 ba f8 03          	mov    $0x3f8,%dx
ffffffff80000eb5:	b0 5d                	mov    $0x5d,%al
ffffffff80000eb7:	ee                   	out    %al,(%dx)
ffffffff80000eb8:	b0 20                	mov    $0x20,%al
ffffffff80000eba:	ee                   	out    %al,(%dx)
ffffffff80000ebb:	b0 28                	mov    $0x28,%al
ffffffff80000ebd:	ee                   	out    %al,(%dx)
ffffffff80000ebe:	c7 04 24 67 64 74 00 	movl   $0x746467,(%rsp)
ffffffff80000ec5:	48 8d 15 34 7c 01 00 	lea    0x17c34(%rip),%rdx        # ffffffff80018b00 <__anon_5249+0x9>
ffffffff80000ecc:	48 8d 0d 9d a1 01 00 	lea    0x1a19d(%rip),%rcx        # ffffffff8001b070 <x64.tss.tss_iopb+0x70>
ffffffff80000ed3:	48 89 e7             	mov    %rsp,%rdi
ffffffff80000ed6:	be 03 00 00 00       	mov    $0x3,%esi
ffffffff80000edb:	e8 a0 2a 00 00       	call   ffffffff80003980 <fmt.formatBuf__anon_2525>
ffffffff80000ee0:	66 85 c0             	test   %ax,%ax
ffffffff80000ee3:	0f 85 6e 1c 00 00    	jne    ffffffff80002b57 <main.main+0x1e27>
ffffffff80000ee9:	66 ba f8 03          	mov    $0x3f8,%dx
ffffffff80000eed:	b0 29                	mov    $0x29,%al
ffffffff80000eef:	ee                   	out    %al,(%dx)
ffffffff80000ef0:	b0 3a                	mov    $0x3a,%al
ffffffff80000ef2:	ee                   	out    %al,(%dx)
ffffffff80000ef3:	b0 20                	mov    $0x20,%al
ffffffff80000ef5:	ee                   	out    %al,(%dx)
ffffffff80000ef6:	b0 74                	mov    $0x74,%al
ffffffff80000ef8:	ee                   	out    %al,(%dx)
ffffffff80000ef9:	b0 73                	mov    $0x73,%al
ffffffff80000efb:	ee                   	out    %al,(%dx)
ffffffff80000efc:	b0 73                	mov    $0x73,%al
ffffffff80000efe:	ee                   	out    %al,(%dx)
ffffffff80000eff:	b0 20                	mov    $0x20,%al
ffffffff80000f01:	ee                   	out    %al,(%dx)
ffffffff80000f02:	b0 61                	mov    $0x61,%al
ffffffff80000f04:	ee                   	out    %al,(%dx)
ffffffff80000f05:	b0 64                	mov    $0x64,%al
ffffffff80000f07:	ee                   	out    %al,(%dx)
ffffffff80000f08:	b0 64                	mov    $0x64,%al
ffffffff80000f0a:	ee                   	out    %al,(%dx)
ffffffff80000f0b:	b0 72                	mov    $0x72,%al
ffffffff80000f0d:	ee                   	out    %al,(%dx)
ffffffff80000f0e:	b0 65                	mov    $0x65,%al
ffffffff80000f10:	ee                   	out    %al,(%dx)
ffffffff80000f11:	b0 73                	mov    $0x73,%al
ffffffff80000f13:	ee                   	out    %al,(%dx)
ffffffff80000f14:	b0 73                	mov    $0x73,%al
ffffffff80000f16:	ee                   	out    %al,(%dx)
ffffffff80000f17:	b0 3a                	mov    $0x3a,%al
ffffffff80000f19:	ee                   	out    %al,(%dx)
ffffffff80000f1a:	b0 20                	mov    $0x20,%al
ffffffff80000f1c:	ee                   	out    %al,(%dx)
ffffffff80000f1d:	b0 30                	mov    $0x30,%al
ffffffff80000f1f:	ee                   	out    %al,(%dx)
ffffffff80000f20:	b0 78                	mov    $0x78,%al
ffffffff80000f22:	ee                   	out    %al,(%dx)
ffffffff80000f23:	48 b8 aa aa aa aa aa 	movabs $0xaaaaaaaaaaaaaaaa,%rax
ffffffff80000f2a:	aa aa aa 
ffffffff80000f2d:	48 89 44 24 38       	mov    %rax,0x38(%rsp)
ffffffff80000f32:	48 89 44 24 30       	mov    %rax,0x30(%rsp)
ffffffff80000f37:	48 89 44 24 28       	mov    %rax,0x28(%rsp)
ffffffff80000f3c:	48 89 44 24 20       	mov    %rax,0x20(%rsp)
ffffffff80000f41:	48 89 44 24 18       	mov    %rax,0x18(%rsp)
ffffffff80000f46:	48 89 44 24 10       	mov    %rax,0x10(%rsp)
ffffffff80000f4b:	48 89 44 24 08       	mov    %rax,0x8(%rsp)
ffffffff80000f50:	48 89 04 24          	mov    %rax,(%rsp)
ffffffff80000f54:	c6 44 24 40 aa       	movb   $0xaa,0x40(%rsp)
ffffffff80000f59:	48 8d 05 a0 a0 01 00 	lea    0x1a0a0(%rip),%rax        # ffffffff8001b000 <x64.tss.tss_iopb>
ffffffff80000f60:	31 f6                	xor    %esi,%esi
ffffffff80000f62:	48 89 c1             	mov    %rax,%rcx
ffffffff80000f65:	66 2e 0f 1f 84 00 00 	cs nopw 0x0(%rax,%rax,1)
ffffffff80000f6c:	00 00 00 
ffffffff80000f6f:	90                   	nop
ffffffff80000f70:	89 c2                	mov    %eax,%edx
ffffffff80000f72:	80 e2 0f             	and    $0xf,%dl
ffffffff80000f75:	8d 7a 30             	lea    0x30(%rdx),%edi
ffffffff80000f78:	44 8d 42 57          	lea    0x57(%rdx),%r8d
ffffffff80000f7c:	80 fa 0a             	cmp    $0xa,%dl
ffffffff80000f7f:	40 0f b6 d7          	movzbl %dil,%edx
ffffffff80000f83:	41 0f b6 f8          	movzbl %r8b,%edi
ffffffff80000f87:	0f 42 fa             	cmovb  %edx,%edi
ffffffff80000f8a:	40 88 7c 34 40       	mov    %dil,0x40(%rsp,%rsi,1)
ffffffff80000f8f:	48 c1 e9 04          	shr    $0x4,%rcx
ffffffff80000f93:	48 83 c6 ff          	add    $0xffffffffffffffff,%rsi
ffffffff80000f97:	48 83 f8 0f          	cmp    $0xf,%rax
ffffffff80000f9b:	48 89 c8             	mov    %rcx,%rax
ffffffff80000f9e:	77 d0                	ja     ffffffff80000f70 <main.main+0x240>
ffffffff80000fa0:	48 8d 3c 34          	lea    (%rsp,%rsi,1),%rdi
ffffffff80000fa4:	48 83 c7 41          	add    $0x41,%rdi
ffffffff80000fa8:	48 f7 de             	neg    %rsi
ffffffff80000fab:	48 8d 15 4e 7b 01 00 	lea    0x17b4e(%rip),%rdx        # ffffffff80018b00 <__anon_5249+0x9>
ffffffff80000fb2:	48 8d 0d b7 a0 01 00 	lea    0x1a0b7(%rip),%rcx        # ffffffff8001b070 <x64.tss.tss_iopb+0x70>
ffffffff80000fb9:	e8 c2 29 00 00       	call   ffffffff80003980 <fmt.formatBuf__anon_2525>
ffffffff80000fbe:	66 85 c0             	test   %ax,%ax
ffffffff80000fc1:	0f 85 90 1b 00 00    	jne    ffffffff80002b57 <main.main+0x1e27>
ffffffff80000fc7:	66 ba f8 03          	mov    $0x3f8,%dx
ffffffff80000fcb:	b0 0a                	mov    $0xa,%al
ffffffff80000fcd:	ee                   	out    %al,(%dx)
ffffffff80000fce:	48 8d 15 2b a0 01 00 	lea    0x1a02b(%rip),%rdx        # ffffffff8001b000 <x64.tss.tss_iopb>
ffffffff80000fd5:	89 d0                	mov    %edx,%eax
ffffffff80000fd7:	c1 e0 10             	shl    $0x10,%eax
ffffffff80000fda:	89 d1                	mov    %edx,%ecx
ffffffff80000fdc:	81 e1 00 00 ff 00    	and    $0xff0000,%ecx
ffffffff80000fe2:	48 c1 e1 10          	shl    $0x10,%rcx
ffffffff80000fe6:	48 09 c1             	or     %rax,%rcx
ffffffff80000fe9:	48 b8 6c 00 00 00 00 	movabs $0x81000000006c,%rax
ffffffff80000ff0:	81 00 00 
ffffffff80000ff3:	48 09 c8             	or     %rcx,%rax
ffffffff80000ff6:	48 89 05 33 c0 01 00 	mov    %rax,0x1c033(%rip)        # ffffffff8001d030 <x64.gdt.Gdt+0x28>
ffffffff80000ffd:	48 8d 05 04 c0 01 00 	lea    0x1c004(%rip),%rax        # ffffffff8001d008 <x64.gdt.Gdt>
ffffffff80001004:	48 89 d1             	mov    %rdx,%rcx
ffffffff80001007:	48 c1 e9 20          	shr    $0x20,%rcx
ffffffff8000100b:	48 89 0d 26 c0 01 00 	mov    %rcx,0x1c026(%rip)        # ffffffff8001d038 <x64.gdt.Gdt+0x30>
ffffffff80001012:	48 89 05 29 c0 01 00 	mov    %rax,0x1c029(%rip)        # ffffffff8001d042 <x64.gdt.GdtR+0x2>
ffffffff80001019:	48 8d 3d 20 c0 01 00 	lea    0x1c020(%rip),%rdi        # ffffffff8001d040 <x64.gdt.GdtR>
ffffffff80001020:	66 c7 05 17 c0 01 00 	movw   $0x37,0x1c017(%rip)        # ffffffff8001d040 <x64.gdt.GdtR>
ffffffff80001027:	37 00 
ffffffff80001029:	e8 b8 fa ff ff       	call   ffffffff80000ae6 <lgdt>
ffffffff8000102e:	bf 10 00 00 00       	mov    $0x10,%edi
ffffffff80001033:	e8 ba fa ff ff       	call   ffffffff80000af2 <setDataSegmentRegisters>
ffffffff80001038:	48 8d 35 c2 fa ff ff 	lea    -0x53e(%rip),%rsi        # ffffffff80000b01 <set_code_segment_register_2>
ffffffff8000103f:	bf 08 00 00 00       	mov    $0x8,%edi
ffffffff80001044:	e8 b4 fa ff ff       	call   ffffffff80000afd <setCodeSegmentRegisters>
ffffffff80001049:	bf 28 00 00 00       	mov    $0x28,%edi
ffffffff8000104e:	e8 9b fa ff ff       	call   ffffffff80000aee <flushTss>
ffffffff80001053:	48 8d 05 78 7b 01 00 	lea    0x17b78(%rip),%rax        # ffffffff80018bd2 <__anon_3536>
ffffffff8000105a:	48 89 04 24          	mov    %rax,(%rsp)
ffffffff8000105e:	48 c7 44 24 08 04 00 	movq   $0x4,0x8(%rsp)
ffffffff80001065:	00 00 
ffffffff80001067:	48 8d 3d 02 a0 01 00 	lea    0x1a002(%rip),%rdi        # ffffffff8001b070 <x64.tss.tss_iopb+0x70>
ffffffff8000106e:	48 89 e6             	mov    %rsp,%rsi
ffffffff80001071:	e8 5a 24 00 00       	call   ffffffff800034d0 <io.Writer.print__anon_2200>
ffffffff80001076:	66 85 c0             	test   %ax,%ax
ffffffff80001079:	0f 85 d8 1a 00 00    	jne    ffffffff80002b57 <main.main+0x1e27>
ffffffff8000107f:	66 ba f8 03          	mov    $0x3f8,%dx
ffffffff80001083:	b0 6c                	mov    $0x6c,%al
ffffffff80001085:	ee                   	out    %al,(%dx)
ffffffff80001086:	b0 6f                	mov    $0x6f,%al
ffffffff80001088:	ee                   	out    %al,(%dx)
ffffffff80001089:	b0 61                	mov    $0x61,%al
ffffffff8000108b:	ee                   	out    %al,(%dx)
ffffffff8000108c:	b0 64                	mov    $0x64,%al
ffffffff8000108e:	ee                   	out    %al,(%dx)
ffffffff8000108f:	b0 69                	mov    $0x69,%al
ffffffff80001091:	ee                   	out    %al,(%dx)
ffffffff80001092:	b0 6e                	mov    $0x6e,%al
ffffffff80001094:	ee                   	out    %al,(%dx)
ffffffff80001095:	b0 67                	mov    $0x67,%al
ffffffff80001097:	ee                   	out    %al,(%dx)
ffffffff80001098:	b0 20                	mov    $0x20,%al
ffffffff8000109a:	ee                   	out    %al,(%dx)
ffffffff8000109b:	b0 69                	mov    $0x69,%al
ffffffff8000109d:	ee                   	out    %al,(%dx)
ffffffff8000109e:	b0 64                	mov    $0x64,%al
ffffffff800010a0:	ee                   	out    %al,(%dx)
ffffffff800010a1:	b0 74                	mov    $0x74,%al
ffffffff800010a3:	ee                   	out    %al,(%dx)
ffffffff800010a4:	b0 0a                	mov    $0xa,%al
ffffffff800010a6:	ee                   	out    %al,(%dx)
ffffffff800010a7:	48 8d 3d f2 25 00 00 	lea    0x25f2(%rip),%rdi        # ffffffff800036a0 <breakpointHandler>
ffffffff800010ae:	89 f8                	mov    %edi,%eax
ffffffff800010b0:	0f b7 f7             	movzwl %di,%esi
ffffffff800010b3:	48 c1 ef 20          	shr    $0x20,%rdi
ffffffff800010b7:	25 00 00 ff ff       	and    $0xffff0000,%eax
ffffffff800010bc:	48 c1 e0 20          	shl    $0x20,%rax
ffffffff800010c0:	48 8d 1d 99 25 00 00 	lea    0x2599(%rip),%rbx        # ffffffff80003660 <pageFaultHandler>
ffffffff800010c7:	48 89 d9             	mov    %rbx,%rcx
ffffffff800010ca:	48 c1 e9 20          	shr    $0x20,%rcx
ffffffff800010ce:	89 da                	mov    %ebx,%edx
ffffffff800010d0:	81 e2 00 00 ff ff    	and    $0xffff0000,%edx
ffffffff800010d6:	48 c1 e2 20          	shl    $0x20,%rdx
ffffffff800010da:	4c 8d 0d 4f 26 00 00 	lea    0x264f(%rip),%r9        # ffffffff80003730 <generalProtectionHandler>
ffffffff800010e1:	45 89 c8             	mov    %r9d,%r8d
ffffffff800010e4:	45 0f b7 d1          	movzwl %r9w,%r10d
ffffffff800010e8:	49 c1 e9 20          	shr    $0x20,%r9
ffffffff800010ec:	41 81 e0 00 00 ff ff 	and    $0xffff0000,%r8d
ffffffff800010f3:	49 c1 e0 20          	shl    $0x20,%r8
ffffffff800010f7:	4c 8d 1d e2 26 00 00 	lea    0x26e2(%rip),%r11        # ffffffff800037e0 <doubleFaultHandler>
ffffffff800010fe:	45 89 de             	mov    %r11d,%r14d
ffffffff80001101:	45 0f b7 fb          	movzwl %r11w,%r15d
ffffffff80001105:	49 c1 eb 20          	shr    $0x20,%r11
ffffffff80001109:	41 81 e6 00 00 ff ff 	and    $0xffff0000,%r14d
ffffffff80001110:	49 c1 e6 20          	shl    $0x20,%r14
ffffffff80001114:	48 09 c6             	or     %rax,%rsi
ffffffff80001117:	48 b8 00 00 08 00 00 	movabs $0x8f0000080000,%rax
ffffffff8000111e:	8f 00 00 
ffffffff80001121:	48 09 c6             	or     %rax,%rsi
ffffffff80001124:	48 89 3d 6d bf 01 00 	mov    %rdi,0x1bf6d(%rip)        # ffffffff8001d098 <x64.idt.IDT+0x38>
ffffffff8000112b:	48 89 35 5e bf 01 00 	mov    %rsi,0x1bf5e(%rip)        # ffffffff8001d090 <x64.idt.IDT+0x30>
ffffffff80001132:	4d 09 f7             	or     %r14,%r15
ffffffff80001135:	49 09 c7             	or     %rax,%r15
ffffffff80001138:	4c 89 1d a9 bf 01 00 	mov    %r11,0x1bfa9(%rip)        # ffffffff8001d0e8 <x64.idt.IDT+0x88>
ffffffff8000113f:	4c 89 3d 9a bf 01 00 	mov    %r15,0x1bf9a(%rip)        # ffffffff8001d0e0 <x64.idt.IDT+0x80>
ffffffff80001146:	4d 09 c2             	or     %r8,%r10
ffffffff80001149:	49 09 c2             	or     %rax,%r10
ffffffff8000114c:	4c 89 0d e5 bf 01 00 	mov    %r9,0x1bfe5(%rip)        # ffffffff8001d138 <x64.idt.IDT+0xd8>
ffffffff80001153:	4c 89 15 d6 bf 01 00 	mov    %r10,0x1bfd6(%rip)        # ffffffff8001d130 <x64.idt.IDT+0xd0>
ffffffff8000115a:	0f b7 f3             	movzwl %bx,%esi
ffffffff8000115d:	48 09 d6             	or     %rdx,%rsi
ffffffff80001160:	48 09 c6             	or     %rax,%rsi
ffffffff80001163:	48 89 0d de bf 01 00 	mov    %rcx,0x1bfde(%rip)        # ffffffff8001d148 <x64.idt.IDT+0xe8>
ffffffff8000116a:	48 89 35 cf bf 01 00 	mov    %rsi,0x1bfcf(%rip)        # ffffffff8001d140 <x64.idt.IDT+0xe0>
ffffffff80001171:	48 8d 05 7e 7a 01 00 	lea    0x17a7e(%rip),%rax        # ffffffff80018bf6 <__anon_5304>
ffffffff80001178:	48 89 44 24 48       	mov    %rax,0x48(%rsp)
ffffffff8000117d:	48 c7 44 24 50 07 00 	movq   $0x7,0x50(%rsp)
ffffffff80001184:	00 00 
ffffffff80001186:	48 8d 3d e3 9e 01 00 	lea    0x19ee3(%rip),%rdi        # ffffffff8001b070 <x64.tss.tss_iopb+0x70>
ffffffff8000118d:	48 8d 74 24 48       	lea    0x48(%rsp),%rsi
ffffffff80001192:	e8 b9 32 00 00       	call   ffffffff80004450 <io.Writer.print__anon_2529>
ffffffff80001197:	66 85 c0             	test   %ax,%ax
ffffffff8000119a:	0f 85 b7 19 00 00    	jne    ffffffff80002b57 <main.main+0x1e27>
ffffffff800011a0:	66 ba f8 03          	mov    $0x3f8,%dx
ffffffff800011a4:	b0 70                	mov    $0x70,%al
ffffffff800011a6:	ee                   	out    %al,(%dx)
ffffffff800011a7:	b0 61                	mov    $0x61,%al
ffffffff800011a9:	ee                   	out    %al,(%dx)
ffffffff800011aa:	b0 67                	mov    $0x67,%al
ffffffff800011ac:	ee                   	out    %al,(%dx)
ffffffff800011ad:	b0 65                	mov    $0x65,%al
ffffffff800011af:	ee                   	out    %al,(%dx)
ffffffff800011b0:	b0 20                	mov    $0x20,%al
ffffffff800011b2:	ee                   	out    %al,(%dx)
ffffffff800011b3:	b0 66                	mov    $0x66,%al
ffffffff800011b5:	ee                   	out    %al,(%dx)
ffffffff800011b6:	b0 61                	mov    $0x61,%al
ffffffff800011b8:	ee                   	out    %al,(%dx)
ffffffff800011b9:	b0 75                	mov    $0x75,%al
ffffffff800011bb:	ee                   	out    %al,(%dx)
ffffffff800011bc:	b0 6c                	mov    $0x6c,%al
ffffffff800011be:	ee                   	out    %al,(%dx)
ffffffff800011bf:	b0 74                	mov    $0x74,%al
ffffffff800011c1:	ee                   	out    %al,(%dx)
ffffffff800011c2:	b0 20                	mov    $0x20,%al
ffffffff800011c4:	ee                   	out    %al,(%dx)
ffffffff800011c5:	b0 68                	mov    $0x68,%al
ffffffff800011c7:	ee                   	out    %al,(%dx)
ffffffff800011c8:	b0 61                	mov    $0x61,%al
ffffffff800011ca:	ee                   	out    %al,(%dx)
ffffffff800011cb:	b0 6e                	mov    $0x6e,%al
ffffffff800011cd:	ee                   	out    %al,(%dx)
ffffffff800011ce:	b0 64                	mov    $0x64,%al
ffffffff800011d0:	ee                   	out    %al,(%dx)
ffffffff800011d1:	b0 6c                	mov    $0x6c,%al
ffffffff800011d3:	ee                   	out    %al,(%dx)
ffffffff800011d4:	b0 65                	mov    $0x65,%al
ffffffff800011d6:	ee                   	out    %al,(%dx)
ffffffff800011d7:	b0 72                	mov    $0x72,%al
ffffffff800011d9:	ee                   	out    %al,(%dx)
ffffffff800011da:	b0 3a                	mov    $0x3a,%al
ffffffff800011dc:	ee                   	out    %al,(%dx)
ffffffff800011dd:	b0 20                	mov    $0x20,%al
ffffffff800011df:	ee                   	out    %al,(%dx)
ffffffff800011e0:	b0 30                	mov    $0x30,%al
ffffffff800011e2:	ee                   	out    %al,(%dx)
ffffffff800011e3:	b0 78                	mov    $0x78,%al
ffffffff800011e5:	ee                   	out    %al,(%dx)
ffffffff800011e6:	48 b8 aa aa aa aa aa 	movabs $0xaaaaaaaaaaaaaaaa,%rax
ffffffff800011ed:	aa aa aa 
ffffffff800011f0:	48 89 44 24 38       	mov    %rax,0x38(%rsp)
ffffffff800011f5:	48 89 44 24 30       	mov    %rax,0x30(%rsp)
ffffffff800011fa:	48 89 44 24 28       	mov    %rax,0x28(%rsp)
ffffffff800011ff:	48 89 44 24 20       	mov    %rax,0x20(%rsp)
ffffffff80001204:	48 89 44 24 18       	mov    %rax,0x18(%rsp)
ffffffff80001209:	48 89 44 24 10       	mov    %rax,0x10(%rsp)
ffffffff8000120e:	48 89 44 24 08       	mov    %rax,0x8(%rsp)
ffffffff80001213:	48 89 04 24          	mov    %rax,(%rsp)
ffffffff80001217:	c6 44 24 40 aa       	movb   $0xaa,0x40(%rsp)
ffffffff8000121c:	31 f6                	xor    %esi,%esi
ffffffff8000121e:	48 89 d8             	mov    %rbx,%rax
ffffffff80001221:	66 2e 0f 1f 84 00 00 	cs nopw 0x0(%rax,%rax,1)
ffffffff80001228:	00 00 00 
ffffffff8000122b:	0f 1f 44 00 00       	nopl   0x0(%rax,%rax,1)
ffffffff80001230:	89 d9                	mov    %ebx,%ecx
ffffffff80001232:	80 e1 0f             	and    $0xf,%cl
ffffffff80001235:	8d 51 30             	lea    0x30(%rcx),%edx
ffffffff80001238:	8d 79 57             	lea    0x57(%rcx),%edi
ffffffff8000123b:	80 f9 0a             	cmp    $0xa,%cl
ffffffff8000123e:	0f b6 ca             	movzbl %dl,%ecx
ffffffff80001241:	40 0f b6 d7          	movzbl %dil,%edx
ffffffff80001245:	0f 42 d1             	cmovb  %ecx,%edx
ffffffff80001248:	88 54 34 40          	mov    %dl,0x40(%rsp,%rsi,1)
ffffffff8000124c:	48 c1 e8 04          	shr    $0x4,%rax
ffffffff80001250:	48 83 c6 ff          	add    $0xffffffffffffffff,%rsi
ffffffff80001254:	48 83 fb 0f          	cmp    $0xf,%rbx
ffffffff80001258:	48 89 c3             	mov    %rax,%rbx
ffffffff8000125b:	77 d3                	ja     ffffffff80001230 <main.main+0x500>
ffffffff8000125d:	48 8d 3c 34          	lea    (%rsp,%rsi,1),%rdi
ffffffff80001261:	48 83 c7 41          	add    $0x41,%rdi
ffffffff80001265:	48 f7 de             	neg    %rsi
ffffffff80001268:	48 8d 15 91 78 01 00 	lea    0x17891(%rip),%rdx        # ffffffff80018b00 <__anon_5249+0x9>
ffffffff8000126f:	48 8d 0d fa 9d 01 00 	lea    0x19dfa(%rip),%rcx        # ffffffff8001b070 <x64.tss.tss_iopb+0x70>
ffffffff80001276:	e8 05 27 00 00       	call   ffffffff80003980 <fmt.formatBuf__anon_2525>
ffffffff8000127b:	66 85 c0             	test   %ax,%ax
ffffffff8000127e:	0f 85 d3 18 00 00    	jne    ffffffff80002b57 <main.main+0x1e27>
ffffffff80001284:	66 ba f8 03          	mov    $0x3f8,%dx
ffffffff80001288:	b0 0a                	mov    $0xa,%al
ffffffff8000128a:	ee                   	out    %al,(%dx)
ffffffff8000128b:	66 c7 05 bc bd 01 00 	movw   $0xfff,0x1bdbc(%rip)        # ffffffff8001d050 <x64.idt.IdtR>
ffffffff80001292:	ff 0f 
ffffffff80001294:	48 8d 3d b5 bd 01 00 	lea    0x1bdb5(%rip),%rdi        # ffffffff8001d050 <x64.idt.IdtR>
ffffffff8000129b:	48 8d 05 be bd 01 00 	lea    0x1bdbe(%rip),%rax        # ffffffff8001d060 <x64.idt.IDT>
ffffffff800012a2:	48 89 05 a9 bd 01 00 	mov    %rax,0x1bda9(%rip)        # ffffffff8001d052 <x64.idt.IdtR+0x2>
ffffffff800012a9:	e8 54 f8 ff ff       	call   ffffffff80000b02 <lidt>
ffffffff800012ae:	48 8d 1d 1d 79 01 00 	lea    0x1791d(%rip),%rbx        # ffffffff80018bd2 <__anon_3536>
ffffffff800012b5:	48 89 1c 24          	mov    %rbx,(%rsp)
ffffffff800012b9:	48 c7 44 24 08 04 00 	movq   $0x4,0x8(%rsp)
ffffffff800012c0:	00 00 
ffffffff800012c2:	48 8d 3d a7 9d 01 00 	lea    0x19da7(%rip),%rdi        # ffffffff8001b070 <x64.tss.tss_iopb+0x70>
ffffffff800012c9:	48 89 e6             	mov    %rsp,%rsi
ffffffff800012cc:	e8 ff 21 00 00       	call   ffffffff800034d0 <io.Writer.print__anon_2200>
ffffffff800012d1:	66 85 c0             	test   %ax,%ax
ffffffff800012d4:	0f 85 7d 18 00 00    	jne    ffffffff80002b57 <main.main+0x1e27>
ffffffff800012da:	66 ba f8 03          	mov    $0x3f8,%dx
ffffffff800012de:	b0 73                	mov    $0x73,%al
ffffffff800012e0:	ee                   	out    %al,(%dx)
ffffffff800012e1:	b0 65                	mov    $0x65,%al
ffffffff800012e3:	ee                   	out    %al,(%dx)
ffffffff800012e4:	b0 74                	mov    $0x74,%al
ffffffff800012e6:	ee                   	out    %al,(%dx)
ffffffff800012e7:	b0 74                	mov    $0x74,%al
ffffffff800012e9:	ee                   	out    %al,(%dx)
ffffffff800012ea:	b0 69                	mov    $0x69,%al
ffffffff800012ec:	ee                   	out    %al,(%dx)
ffffffff800012ed:	b0 6e                	mov    $0x6e,%al
ffffffff800012ef:	ee                   	out    %al,(%dx)
ffffffff800012f0:	b0 67                	mov    $0x67,%al
ffffffff800012f2:	ee                   	out    %al,(%dx)
ffffffff800012f3:	b0 20                	mov    $0x20,%al
ffffffff800012f5:	ee                   	out    %al,(%dx)
ffffffff800012f6:	b0 65                	mov    $0x65,%al
ffffffff800012f8:	ee                   	out    %al,(%dx)
ffffffff800012f9:	b0 66                	mov    $0x66,%al
ffffffff800012fb:	ee                   	out    %al,(%dx)
ffffffff800012fc:	b0 65                	mov    $0x65,%al
ffffffff800012fe:	ee                   	out    %al,(%dx)
ffffffff800012ff:	b0 72                	mov    $0x72,%al
ffffffff80001301:	ee                   	out    %al,(%dx)
ffffffff80001302:	b0 0a                	mov    $0xa,%al
ffffffff80001304:	ee                   	out    %al,(%dx)
ffffffff80001305:	bf 80 00 00 c0       	mov    $0xc0000080,%edi
ffffffff8000130a:	e8 f7 f7 ff ff       	call   ffffffff80000b06 <readMsr>
ffffffff8000130f:	48 0d 01 08 00 00    	or     $0x801,%rax
ffffffff80001315:	bf 80 00 00 c0       	mov    $0xc0000080,%edi
ffffffff8000131a:	48 89 c6             	mov    %rax,%rsi
ffffffff8000131d:	e8 f0 f7 ff ff       	call   ffffffff80000b12 <writeMsr>
ffffffff80001322:	48 89 1c 24          	mov    %rbx,(%rsp)
ffffffff80001326:	48 c7 44 24 08 04 00 	movq   $0x4,0x8(%rsp)
ffffffff8000132d:	00 00 
ffffffff8000132f:	48 8d 3d 3a 9d 01 00 	lea    0x19d3a(%rip),%rdi        # ffffffff8001b070 <x64.tss.tss_iopb+0x70>
ffffffff80001336:	48 89 e6             	mov    %rsp,%rsi
ffffffff80001339:	e8 92 21 00 00       	call   ffffffff800034d0 <io.Writer.print__anon_2200>
ffffffff8000133e:	66 85 c0             	test   %ax,%ax
ffffffff80001341:	0f 85 10 18 00 00    	jne    ffffffff80002b57 <main.main+0x1e27>
ffffffff80001347:	66 ba f8 03          	mov    $0x3f8,%dx
ffffffff8000134b:	b0 73                	mov    $0x73,%al
ffffffff8000134d:	ee                   	out    %al,(%dx)
ffffffff8000134e:	b0 65                	mov    $0x65,%al
ffffffff80001350:	ee                   	out    %al,(%dx)
ffffffff80001351:	b0 74                	mov    $0x74,%al
ffffffff80001353:	ee                   	out    %al,(%dx)
ffffffff80001354:	b0 74                	mov    $0x74,%al
ffffffff80001356:	ee                   	out    %al,(%dx)
ffffffff80001357:	b0 69                	mov    $0x69,%al
ffffffff80001359:	ee                   	out    %al,(%dx)
ffffffff8000135a:	b0 6e                	mov    $0x6e,%al
ffffffff8000135c:	ee                   	out    %al,(%dx)
ffffffff8000135d:	b0 67                	mov    $0x67,%al
ffffffff8000135f:	ee                   	out    %al,(%dx)
ffffffff80001360:	b0 20                	mov    $0x20,%al
ffffffff80001362:	ee                   	out    %al,(%dx)
ffffffff80001363:	b0 73                	mov    $0x73,%al
ffffffff80001365:	ee                   	out    %al,(%dx)
ffffffff80001366:	b0 74                	mov    $0x74,%al
ffffffff80001368:	ee                   	out    %al,(%dx)
ffffffff80001369:	b0 61                	mov    $0x61,%al
ffffffff8000136b:	ee                   	out    %al,(%dx)
ffffffff8000136c:	b0 72                	mov    $0x72,%al
ffffffff8000136e:	ee                   	out    %al,(%dx)
ffffffff8000136f:	b0 0a                	mov    $0xa,%al
ffffffff80001371:	ee                   	out    %al,(%dx)
ffffffff80001372:	48 be 00 00 00 00 08 	movabs $0x1b000800000000,%rsi
ffffffff80001379:	00 1b 00 
ffffffff8000137c:	bf 81 00 00 c0       	mov    $0xc0000081,%edi
ffffffff80001381:	e8 8c f7 ff ff       	call   ffffffff80000b12 <writeMsr>
ffffffff80001386:	48 89 5c 24 48       	mov    %rbx,0x48(%rsp)
ffffffff8000138b:	48 c7 44 24 50 04 00 	movq   $0x4,0x50(%rsp)
ffffffff80001392:	00 00 
ffffffff80001394:	48 8d 3d d5 9c 01 00 	lea    0x19cd5(%rip),%rdi        # ffffffff8001b070 <x64.tss.tss_iopb+0x70>
ffffffff8000139b:	48 8d 74 24 48       	lea    0x48(%rsp),%rsi
ffffffff800013a0:	e8 2b 21 00 00       	call   ffffffff800034d0 <io.Writer.print__anon_2200>
ffffffff800013a5:	66 85 c0             	test   %ax,%ax
ffffffff800013a8:	0f 85 a9 17 00 00    	jne    ffffffff80002b57 <main.main+0x1e27>
ffffffff800013ae:	66 ba f8 03          	mov    $0x3f8,%dx
ffffffff800013b2:	b0 6c                	mov    $0x6c,%al
ffffffff800013b4:	ee                   	out    %al,(%dx)
ffffffff800013b5:	b0 6f                	mov    $0x6f,%al
ffffffff800013b7:	ee                   	out    %al,(%dx)
ffffffff800013b8:	b0 61                	mov    $0x61,%al
ffffffff800013ba:	ee                   	out    %al,(%dx)
ffffffff800013bb:	b0 64                	mov    $0x64,%al
ffffffff800013bd:	ee                   	out    %al,(%dx)
ffffffff800013be:	b0 69                	mov    $0x69,%al
ffffffff800013c0:	ee                   	out    %al,(%dx)
ffffffff800013c1:	b0 6e                	mov    $0x6e,%al
ffffffff800013c3:	ee                   	out    %al,(%dx)
ffffffff800013c4:	b0 67                	mov    $0x67,%al
ffffffff800013c6:	ee                   	out    %al,(%dx)
ffffffff800013c7:	b0 20                	mov    $0x20,%al
ffffffff800013c9:	ee                   	out    %al,(%dx)
ffffffff800013ca:	b0 73                	mov    $0x73,%al
ffffffff800013cc:	ee                   	out    %al,(%dx)
ffffffff800013cd:	b0 79                	mov    $0x79,%al
ffffffff800013cf:	ee                   	out    %al,(%dx)
ffffffff800013d0:	b0 73                	mov    $0x73,%al
ffffffff800013d2:	ee                   	out    %al,(%dx)
ffffffff800013d3:	b0 63                	mov    $0x63,%al
ffffffff800013d5:	ee                   	out    %al,(%dx)
ffffffff800013d6:	b0 61                	mov    $0x61,%al
ffffffff800013d8:	ee                   	out    %al,(%dx)
ffffffff800013d9:	b0 6c                	mov    $0x6c,%al
ffffffff800013db:	ee                   	out    %al,(%dx)
ffffffff800013dc:	b0 6c                	mov    $0x6c,%al
ffffffff800013de:	ee                   	out    %al,(%dx)
ffffffff800013df:	b0 20                	mov    $0x20,%al
ffffffff800013e1:	ee                   	out    %al,(%dx)
ffffffff800013e2:	b0 68                	mov    $0x68,%al
ffffffff800013e4:	ee                   	out    %al,(%dx)
ffffffff800013e5:	b0 61                	mov    $0x61,%al
ffffffff800013e7:	ee                   	out    %al,(%dx)
ffffffff800013e8:	b0 6e                	mov    $0x6e,%al
ffffffff800013ea:	ee                   	out    %al,(%dx)
ffffffff800013eb:	b0 64                	mov    $0x64,%al
ffffffff800013ed:	ee                   	out    %al,(%dx)
ffffffff800013ee:	b0 6c                	mov    $0x6c,%al
ffffffff800013f0:	ee                   	out    %al,(%dx)
ffffffff800013f1:	b0 65                	mov    $0x65,%al
ffffffff800013f3:	ee                   	out    %al,(%dx)
ffffffff800013f4:	b0 72                	mov    $0x72,%al
ffffffff800013f6:	ee                   	out    %al,(%dx)
ffffffff800013f7:	b0 20                	mov    $0x20,%al
ffffffff800013f9:	ee                   	out    %al,(%dx)
ffffffff800013fa:	b0 61                	mov    $0x61,%al
ffffffff800013fc:	ee                   	out    %al,(%dx)
ffffffff800013fd:	b0 74                	mov    $0x74,%al
ffffffff800013ff:	ee                   	out    %al,(%dx)
ffffffff80001400:	b0 3a                	mov    $0x3a,%al
ffffffff80001402:	ee                   	out    %al,(%dx)
ffffffff80001403:	b0 20                	mov    $0x20,%al
ffffffff80001405:	ee                   	out    %al,(%dx)
ffffffff80001406:	b0 30                	mov    $0x30,%al
ffffffff80001408:	ee                   	out    %al,(%dx)
ffffffff80001409:	b0 78                	mov    $0x78,%al
ffffffff8000140b:	ee                   	out    %al,(%dx)
ffffffff8000140c:	48 b8 aa aa aa aa aa 	movabs $0xaaaaaaaaaaaaaaaa,%rax
ffffffff80001413:	aa aa aa 
ffffffff80001416:	48 89 44 24 38       	mov    %rax,0x38(%rsp)
ffffffff8000141b:	48 89 44 24 30       	mov    %rax,0x30(%rsp)
ffffffff80001420:	48 89 44 24 28       	mov    %rax,0x28(%rsp)
ffffffff80001425:	48 89 44 24 20       	mov    %rax,0x20(%rsp)
ffffffff8000142a:	48 89 44 24 18       	mov    %rax,0x18(%rsp)
ffffffff8000142f:	48 89 44 24 10       	mov    %rax,0x10(%rsp)
ffffffff80001434:	48 89 44 24 08       	mov    %rax,0x8(%rsp)
ffffffff80001439:	48 89 04 24          	mov    %rax,(%rsp)
ffffffff8000143d:	c6 44 24 40 aa       	movb   $0xaa,0x40(%rsp)
ffffffff80001442:	48 8d 05 49 f6 ff ff 	lea    -0x9b7(%rip),%rax        # ffffffff80000a92 <syscall_wrapper>
ffffffff80001449:	31 f6                	xor    %esi,%esi
ffffffff8000144b:	48 89 c1             	mov    %rax,%rcx
ffffffff8000144e:	66 90                	xchg   %ax,%ax
ffffffff80001450:	89 c2                	mov    %eax,%edx
ffffffff80001452:	80 e2 0f             	and    $0xf,%dl
ffffffff80001455:	8d 7a 30             	lea    0x30(%rdx),%edi
ffffffff80001458:	44 8d 42 57          	lea    0x57(%rdx),%r8d
ffffffff8000145c:	80 fa 0a             	cmp    $0xa,%dl
ffffffff8000145f:	40 0f b6 d7          	movzbl %dil,%edx
ffffffff80001463:	41 0f b6 f8          	movzbl %r8b,%edi
ffffffff80001467:	0f 42 fa             	cmovb  %edx,%edi
ffffffff8000146a:	40 88 7c 34 40       	mov    %dil,0x40(%rsp,%rsi,1)
ffffffff8000146f:	48 c1 e9 04          	shr    $0x4,%rcx
ffffffff80001473:	48 83 c6 ff          	add    $0xffffffffffffffff,%rsi
ffffffff80001477:	48 83 f8 0f          	cmp    $0xf,%rax
ffffffff8000147b:	48 89 c8             	mov    %rcx,%rax
ffffffff8000147e:	77 d0                	ja     ffffffff80001450 <main.main+0x720>
ffffffff80001480:	48 8d 3c 34          	lea    (%rsp,%rsi,1),%rdi
ffffffff80001484:	48 83 c7 41          	add    $0x41,%rdi
ffffffff80001488:	48 f7 de             	neg    %rsi
ffffffff8000148b:	48 8d 15 6e 76 01 00 	lea    0x1766e(%rip),%rdx        # ffffffff80018b00 <__anon_5249+0x9>
ffffffff80001492:	48 8d 0d d7 9b 01 00 	lea    0x19bd7(%rip),%rcx        # ffffffff8001b070 <x64.tss.tss_iopb+0x70>
ffffffff80001499:	e8 e2 24 00 00       	call   ffffffff80003980 <fmt.formatBuf__anon_2525>
ffffffff8000149e:	66 85 c0             	test   %ax,%ax
ffffffff800014a1:	0f 85 b0 16 00 00    	jne    ffffffff80002b57 <main.main+0x1e27>
ffffffff800014a7:	66 ba f8 03          	mov    $0x3f8,%dx
ffffffff800014ab:	b0 0a                	mov    $0xa,%al
ffffffff800014ad:	ee                   	out    %al,(%dx)
ffffffff800014ae:	48 8d 35 dd f5 ff ff 	lea    -0xa23(%rip),%rsi        # ffffffff80000a92 <syscall_wrapper>
ffffffff800014b5:	bf 82 00 00 c0       	mov    $0xc0000082,%edi
ffffffff800014ba:	e8 53 f6 ff ff       	call   ffffffff80000b12 <writeMsr>
ffffffff800014bf:	48 8d 1d 3a bb 01 00 	lea    0x1bb3a(%rip),%rbx        # ffffffff8001d000 <main.kernel_rsp>
ffffffff800014c6:	bf 02 01 00 c0       	mov    $0xc0000102,%edi
ffffffff800014cb:	48 89 de             	mov    %rbx,%rsi
ffffffff800014ce:	e8 3f f6 ff ff       	call   ffffffff80000b12 <writeMsr>
ffffffff800014d3:	48 8d 05 f8 76 01 00 	lea    0x176f8(%rip),%rax        # ffffffff80018bd2 <__anon_3536>
ffffffff800014da:	48 89 44 24 48       	mov    %rax,0x48(%rsp)
ffffffff800014df:	48 c7 44 24 50 04 00 	movq   $0x4,0x50(%rsp)
ffffffff800014e6:	00 00 
ffffffff800014e8:	48 8d 3d 81 9b 01 00 	lea    0x19b81(%rip),%rdi        # ffffffff8001b070 <x64.tss.tss_iopb+0x70>
ffffffff800014ef:	48 8d 74 24 48       	lea    0x48(%rsp),%rsi
ffffffff800014f4:	e8 d7 1f 00 00       	call   ffffffff800034d0 <io.Writer.print__anon_2200>
ffffffff800014f9:	66 85 c0             	test   %ax,%ax
ffffffff800014fc:	0f 85 55 16 00 00    	jne    ffffffff80002b57 <main.main+0x1e27>
ffffffff80001502:	66 ba f8 03          	mov    $0x3f8,%dx
ffffffff80001506:	b0 6c                	mov    $0x6c,%al
ffffffff80001508:	ee                   	out    %al,(%dx)
ffffffff80001509:	b0 6f                	mov    $0x6f,%al
ffffffff8000150b:	ee                   	out    %al,(%dx)
ffffffff8000150c:	b0 61                	mov    $0x61,%al
ffffffff8000150e:	ee                   	out    %al,(%dx)
ffffffff8000150f:	b0 64                	mov    $0x64,%al
ffffffff80001511:	ee                   	out    %al,(%dx)
ffffffff80001512:	b0 69                	mov    $0x69,%al
ffffffff80001514:	ee                   	out    %al,(%dx)
ffffffff80001515:	b0 6e                	mov    $0x6e,%al
ffffffff80001517:	ee                   	out    %al,(%dx)
ffffffff80001518:	b0 67                	mov    $0x67,%al
ffffffff8000151a:	ee                   	out    %al,(%dx)
ffffffff8000151b:	b0 20                	mov    $0x20,%al
ffffffff8000151d:	ee                   	out    %al,(%dx)
ffffffff8000151e:	b0 67                	mov    $0x67,%al
ffffffff80001520:	ee                   	out    %al,(%dx)
ffffffff80001521:	b0 73                	mov    $0x73,%al
ffffffff80001523:	ee                   	out    %al,(%dx)
ffffffff80001524:	b0 20                	mov    $0x20,%al
ffffffff80001526:	ee                   	out    %al,(%dx)
ffffffff80001527:	b0 62                	mov    $0x62,%al
ffffffff80001529:	ee                   	out    %al,(%dx)
ffffffff8000152a:	b0 61                	mov    $0x61,%al
ffffffff8000152c:	ee                   	out    %al,(%dx)
ffffffff8000152d:	b0 73                	mov    $0x73,%al
ffffffff8000152f:	ee                   	out    %al,(%dx)
ffffffff80001530:	b0 65                	mov    $0x65,%al
ffffffff80001532:	ee                   	out    %al,(%dx)
ffffffff80001533:	b0 3a                	mov    $0x3a,%al
ffffffff80001535:	ee                   	out    %al,(%dx)
ffffffff80001536:	b0 20                	mov    $0x20,%al
ffffffff80001538:	ee                   	out    %al,(%dx)
ffffffff80001539:	b0 30                	mov    $0x30,%al
ffffffff8000153b:	ee                   	out    %al,(%dx)
ffffffff8000153c:	b0 78                	mov    $0x78,%al
ffffffff8000153e:	ee                   	out    %al,(%dx)
ffffffff8000153f:	48 b8 aa aa aa aa aa 	movabs $0xaaaaaaaaaaaaaaaa,%rax
ffffffff80001546:	aa aa aa 
ffffffff80001549:	48 89 44 24 38       	mov    %rax,0x38(%rsp)
ffffffff8000154e:	48 89 44 24 30       	mov    %rax,0x30(%rsp)
ffffffff80001553:	48 89 44 24 28       	mov    %rax,0x28(%rsp)
ffffffff80001558:	48 89 44 24 20       	mov    %rax,0x20(%rsp)
ffffffff8000155d:	48 89 44 24 18       	mov    %rax,0x18(%rsp)
ffffffff80001562:	48 89 44 24 10       	mov    %rax,0x10(%rsp)
ffffffff80001567:	48 89 44 24 08       	mov    %rax,0x8(%rsp)
ffffffff8000156c:	48 89 04 24          	mov    %rax,(%rsp)
ffffffff80001570:	c6 44 24 40 aa       	movb   $0xaa,0x40(%rsp)
ffffffff80001575:	31 f6                	xor    %esi,%esi
ffffffff80001577:	48 89 d8             	mov    %rbx,%rax
ffffffff8000157a:	66 0f 1f 44 00 00    	nopw   0x0(%rax,%rax,1)
ffffffff80001580:	89 d9                	mov    %ebx,%ecx
ffffffff80001582:	80 e1 0f             	and    $0xf,%cl
ffffffff80001585:	8d 51 30             	lea    0x30(%rcx),%edx
ffffffff80001588:	8d 79 57             	lea    0x57(%rcx),%edi
ffffffff8000158b:	80 f9 0a             	cmp    $0xa,%cl
ffffffff8000158e:	0f b6 ca             	movzbl %dl,%ecx
ffffffff80001591:	40 0f b6 d7          	movzbl %dil,%edx
ffffffff80001595:	0f 42 d1             	cmovb  %ecx,%edx
ffffffff80001598:	88 54 34 40          	mov    %dl,0x40(%rsp,%rsi,1)
ffffffff8000159c:	48 c1 e8 04          	shr    $0x4,%rax
ffffffff800015a0:	48 83 c6 ff          	add    $0xffffffffffffffff,%rsi
ffffffff800015a4:	48 83 fb 0f          	cmp    $0xf,%rbx
ffffffff800015a8:	48 89 c3             	mov    %rax,%rbx
ffffffff800015ab:	77 d3                	ja     ffffffff80001580 <main.main+0x850>
ffffffff800015ad:	48 8d 3c 34          	lea    (%rsp,%rsi,1),%rdi
ffffffff800015b1:	48 83 c7 41          	add    $0x41,%rdi
ffffffff800015b5:	48 f7 de             	neg    %rsi
ffffffff800015b8:	48 8d 15 41 75 01 00 	lea    0x17541(%rip),%rdx        # ffffffff80018b00 <__anon_5249+0x9>
ffffffff800015bf:	48 8d 0d aa 9a 01 00 	lea    0x19aaa(%rip),%rcx        # ffffffff8001b070 <x64.tss.tss_iopb+0x70>
ffffffff800015c6:	e8 b5 23 00 00       	call   ffffffff80003980 <fmt.formatBuf__anon_2525>
ffffffff800015cb:	66 85 c0             	test   %ax,%ax
ffffffff800015ce:	0f 85 83 15 00 00    	jne    ffffffff80002b57 <main.main+0x1e27>
ffffffff800015d4:	66 ba f8 03          	mov    $0x3f8,%dx
ffffffff800015d8:	b0 0a                	mov    $0xa,%al
ffffffff800015da:	ee                   	out    %al,(%dx)
ffffffff800015db:	48 8d 05 f0 75 01 00 	lea    0x175f0(%rip),%rax        # ffffffff80018bd2 <__anon_3536>
ffffffff800015e2:	48 89 04 24          	mov    %rax,(%rsp)
ffffffff800015e6:	48 c7 44 24 08 04 00 	movq   $0x4,0x8(%rsp)
ffffffff800015ed:	00 00 
ffffffff800015ef:	48 8d 3d 7a 9a 01 00 	lea    0x19a7a(%rip),%rdi        # ffffffff8001b070 <x64.tss.tss_iopb+0x70>
ffffffff800015f6:	48 89 e6             	mov    %rsp,%rsi
ffffffff800015f9:	e8 d2 1e 00 00       	call   ffffffff800034d0 <io.Writer.print__anon_2200>
ffffffff800015fe:	66 85 c0             	test   %ax,%ax
ffffffff80001601:	0f 85 50 15 00 00    	jne    ffffffff80002b57 <main.main+0x1e27>
ffffffff80001607:	66 ba f8 03          	mov    $0x3f8,%dx
ffffffff8000160b:	b0 64                	mov    $0x64,%al
ffffffff8000160d:	ee                   	out    %al,(%dx)
ffffffff8000160e:	b0 65                	mov    $0x65,%al
ffffffff80001610:	ee                   	out    %al,(%dx)
ffffffff80001611:	b0 65                	mov    $0x65,%al
ffffffff80001613:	ee                   	out    %al,(%dx)
ffffffff80001614:	b0 70                	mov    $0x70,%al
ffffffff80001616:	ee                   	out    %al,(%dx)
ffffffff80001617:	b0 20                	mov    $0x20,%al
ffffffff80001619:	ee                   	out    %al,(%dx)
ffffffff8000161a:	b0 63                	mov    $0x63,%al
ffffffff8000161c:	ee                   	out    %al,(%dx)
ffffffff8000161d:	b0 6f                	mov    $0x6f,%al
ffffffff8000161f:	ee                   	out    %al,(%dx)
ffffffff80001620:	b0 70                	mov    $0x70,%al
ffffffff80001622:	ee                   	out    %al,(%dx)
ffffffff80001623:	b0 79                	mov    $0x79,%al
ffffffff80001625:	ee                   	out    %al,(%dx)
ffffffff80001626:	b0 69                	mov    $0x69,%al
ffffffff80001628:	ee                   	out    %al,(%dx)
ffffffff80001629:	b0 6e                	mov    $0x6e,%al
ffffffff8000162b:	ee                   	out    %al,(%dx)
ffffffff8000162c:	b0 67                	mov    $0x67,%al
ffffffff8000162e:	ee                   	out    %al,(%dx)
ffffffff8000162f:	b0 20                	mov    $0x20,%al
ffffffff80001631:	ee                   	out    %al,(%dx)
ffffffff80001632:	b0 70                	mov    $0x70,%al
ffffffff80001634:	ee                   	out    %al,(%dx)
ffffffff80001635:	b0 61                	mov    $0x61,%al
ffffffff80001637:	ee                   	out    %al,(%dx)
ffffffff80001638:	b0 67                	mov    $0x67,%al
ffffffff8000163a:	ee                   	out    %al,(%dx)
ffffffff8000163b:	b0 65                	mov    $0x65,%al
ffffffff8000163d:	ee                   	out    %al,(%dx)
ffffffff8000163e:	b0 20                	mov    $0x20,%al
ffffffff80001640:	ee                   	out    %al,(%dx)
ffffffff80001641:	b0 74                	mov    $0x74,%al
ffffffff80001643:	ee                   	out    %al,(%dx)
ffffffff80001644:	b0 61                	mov    $0x61,%al
ffffffff80001646:	ee                   	out    %al,(%dx)
ffffffff80001647:	b0 62                	mov    $0x62,%al
ffffffff80001649:	ee                   	out    %al,(%dx)
ffffffff8000164a:	b0 6c                	mov    $0x6c,%al
ffffffff8000164c:	ee                   	out    %al,(%dx)
ffffffff8000164d:	b0 65                	mov    $0x65,%al
ffffffff8000164f:	ee                   	out    %al,(%dx)
ffffffff80001650:	b0 73                	mov    $0x73,%al
ffffffff80001652:	ee                   	out    %al,(%dx)
ffffffff80001653:	b0 0a                	mov    $0xa,%al
ffffffff80001655:	ee                   	out    %al,(%dx)
ffffffff80001656:	e8 c6 f4 ff ff       	call   ffffffff80000b21 <get_cr3>
ffffffff8000165b:	48 89 c3             	mov    %rax,%rbx
ffffffff8000165e:	48 81 e3 00 f0 ff ff 	and    $0xfffffffffffff000,%rbx
ffffffff80001665:	48 03 5c 24 58       	add    0x58(%rsp),%rbx
ffffffff8000166a:	0f 82 a3 14 00 00    	jb     ffffffff80002b13 <main.main+0x1de3>
ffffffff80001670:	0f 84 ae 14 00 00    	je     ffffffff80002b24 <main.main+0x1df4>
ffffffff80001676:	f6 c3 07             	test   $0x7,%bl
ffffffff80001679:	0f 85 b6 14 00 00    	jne    ffffffff80002b35 <main.main+0x1e05>
ffffffff8000167f:	48 8d 7c 24 70       	lea    0x70(%rsp),%rdi
ffffffff80001684:	e8 b7 16 00 00       	call   ffffffff80002d40 <pmm.FrameAllocator.allocate_frame>
ffffffff80001689:	48 8b 74 24 58       	mov    0x58(%rsp),%rsi
ffffffff8000168e:	48 89 f1             	mov    %rsi,%rcx
ffffffff80001691:	48 89 44 24 60       	mov    %rax,0x60(%rsp)
ffffffff80001696:	48 01 c1             	add    %rax,%rcx
ffffffff80001699:	48 89 8c 24 a0 00 00 	mov    %rcx,0xa0(%rsp)
ffffffff800016a0:	00 
ffffffff800016a1:	0f 82 6c 14 00 00    	jb     ffffffff80002b13 <main.main+0x1de3>
ffffffff800016a7:	0f 84 77 14 00 00    	je     ffffffff80002b24 <main.main+0x1df4>
ffffffff800016ad:	f6 84 24 a0 00 00 00 	testb  $0x7,0xa0(%rsp)
ffffffff800016b4:	07 
ffffffff800016b5:	0f 85 7a 14 00 00    	jne    ffffffff80002b35 <main.main+0x1e05>
ffffffff800016bb:	48 bf 00 f0 ff ff ff 	movabs $0xffffffffff000,%rdi
ffffffff800016c2:	ff 0f 00 
ffffffff800016c5:	45 31 f6             	xor    %r14d,%r14d
ffffffff800016c8:	48 89 9c 24 a8 00 00 	mov    %rbx,0xa8(%rsp)
ffffffff800016cf:	00 
ffffffff800016d0:	eb 67                	jmp    ffffffff80001739 <main.main+0xa09>
ffffffff800016d2:	66 2e 0f 1f 84 00 00 	cs nopw 0x0(%rax,%rax,1)
ffffffff800016d9:	00 00 00 
ffffffff800016dc:	0f 1f 40 00          	nopl   0x0(%rax)
ffffffff800016e0:	4c 89 4c 24 70       	mov    %r9,0x70(%rsp)
ffffffff800016e5:	48 8b 9c 24 a8 00 00 	mov    0xa8(%rsp),%rbx
ffffffff800016ec:	00 
ffffffff800016ed:	4c 8b b4 24 b0 00 00 	mov    0xb0(%rsp),%r14
ffffffff800016f4:	00 
ffffffff800016f5:	4a 8b 04 f3          	mov    (%rbx,%r14,8),%rax
ffffffff800016f9:	48 8b 8c 24 a0 00 00 	mov    0xa0(%rsp),%rcx
ffffffff80001700:	00 
ffffffff80001701:	4a 89 04 f1          	mov    %rax,(%rcx,%r14,8)
ffffffff80001705:	4a 8b 04 f1          	mov    (%rcx,%r14,8),%rax
ffffffff80001709:	48 ba ff 0f 00 00 00 	movabs $0xfff0000000000fff,%rdx
ffffffff80001710:	00 f0 ff 
ffffffff80001713:	48 21 d0             	and    %rdx,%rax
ffffffff80001716:	48 8b 94 24 b8 00 00 	mov    0xb8(%rsp),%rdx
ffffffff8000171d:	00 
ffffffff8000171e:	48 21 fa             	and    %rdi,%rdx
ffffffff80001721:	48 09 c2             	or     %rax,%rdx
ffffffff80001724:	4a 89 14 f1          	mov    %rdx,(%rcx,%r14,8)
ffffffff80001728:	49 83 c6 01          	add    $0x1,%r14
ffffffff8000172c:	49 81 fe 00 02 00 00 	cmp    $0x200,%r14
ffffffff80001733:	0f 84 8f 03 00 00    	je     ffffffff80001ac8 <main.main+0xd98>
ffffffff80001739:	4e 8b 3c f3          	mov    (%rbx,%r14,8),%r15
ffffffff8000173d:	41 f6 c7 01          	test   $0x1,%r15b
ffffffff80001741:	74 e5                	je     ffffffff80001728 <main.main+0x9f8>
ffffffff80001743:	49 21 ff             	and    %rdi,%r15
ffffffff80001746:	49 01 f7             	add    %rsi,%r15
ffffffff80001749:	0f 82 c4 13 00 00    	jb     ffffffff80002b13 <main.main+0x1de3>
ffffffff8000174f:	0f 84 cf 13 00 00    	je     ffffffff80002b24 <main.main+0x1df4>
ffffffff80001755:	41 f6 c7 07          	test   $0x7,%r15b
ffffffff80001759:	0f 85 d6 13 00 00    	jne    ffffffff80002b35 <main.main+0x1e05>
ffffffff8000175f:	48 8d 7c 24 70       	lea    0x70(%rsp),%rdi
ffffffff80001764:	e8 d7 15 00 00       	call   ffffffff80002d40 <pmm.FrameAllocator.allocate_frame>
ffffffff80001769:	48 8b 74 24 58       	mov    0x58(%rsp),%rsi
ffffffff8000176e:	49 89 f4             	mov    %rsi,%r12
ffffffff80001771:	48 89 84 24 b8 00 00 	mov    %rax,0xb8(%rsp)
ffffffff80001778:	00 
ffffffff80001779:	49 01 c4             	add    %rax,%r12
ffffffff8000177c:	0f 82 91 13 00 00    	jb     ffffffff80002b13 <main.main+0x1de3>
ffffffff80001782:	48 bf 00 f0 ff ff ff 	movabs $0xffffffffff000,%rdi
ffffffff80001789:	ff 0f 00 
ffffffff8000178c:	0f 84 92 13 00 00    	je     ffffffff80002b24 <main.main+0x1df4>
ffffffff80001792:	4c 89 b4 24 b0 00 00 	mov    %r14,0xb0(%rsp)
ffffffff80001799:	00 
ffffffff8000179a:	41 f6 c4 07          	test   $0x7,%r12b
ffffffff8000179e:	0f 85 91 13 00 00    	jne    ffffffff80002b35 <main.main+0x1e05>
ffffffff800017a4:	4c 8b 4c 24 70       	mov    0x70(%rsp),%r9
ffffffff800017a9:	4c 8b 44 24 78       	mov    0x78(%rsp),%r8
ffffffff800017ae:	31 db                	xor    %ebx,%ebx
ffffffff800017b0:	4c 89 44 24 68       	mov    %r8,0x68(%rsp)
ffffffff800017b5:	4c 89 bc 24 88 00 00 	mov    %r15,0x88(%rsp)
ffffffff800017bc:	00 
ffffffff800017bd:	4c 89 a4 24 80 00 00 	mov    %r12,0x80(%rsp)
ffffffff800017c4:	00 
ffffffff800017c5:	eb 1e                	jmp    ffffffff800017e5 <main.main+0xab5>
ffffffff800017c7:	66 0f 1f 84 00 00 00 	nopw   0x0(%rax,%rax,1)
ffffffff800017ce:	00 00 
ffffffff800017d0:	4d 89 34 dc          	mov    %r14,(%r12,%rbx,8)
ffffffff800017d4:	48 83 c3 01          	add    $0x1,%rbx
ffffffff800017d8:	48 81 fb 00 02 00 00 	cmp    $0x200,%rbx
ffffffff800017df:	0f 84 fb fe ff ff    	je     ffffffff800016e0 <main.main+0x9b0>
ffffffff800017e5:	4d 8b 34 df          	mov    (%r15,%rbx,8),%r14
ffffffff800017e9:	41 f6 c6 01          	test   $0x1,%r14b
ffffffff800017ed:	74 e5                	je     ffffffff800017d4 <main.main+0xaa4>
ffffffff800017ef:	45 84 f6             	test   %r14b,%r14b
ffffffff800017f2:	78 dc                	js     ffffffff800017d0 <main.main+0xaa0>
ffffffff800017f4:	49 21 fe             	and    %rdi,%r14
ffffffff800017f7:	49 01 f6             	add    %rsi,%r14
ffffffff800017fa:	0f 82 13 13 00 00    	jb     ffffffff80002b13 <main.main+0x1de3>
ffffffff80001800:	0f 84 1e 13 00 00    	je     ffffffff80002b24 <main.main+0x1df4>
ffffffff80001806:	41 f6 c6 07          	test   $0x7,%r14b
ffffffff8000180a:	0f 85 25 13 00 00    	jne    ffffffff80002b35 <main.main+0x1e05>
ffffffff80001810:	4d 85 c9             	test   %r9,%r9
ffffffff80001813:	0f 84 98 00 00 00    	je     ffffffff800018b1 <main.main+0xb81>
ffffffff80001819:	4c 89 c8             	mov    %r9,%rax
ffffffff8000181c:	4c 01 c0             	add    %r8,%rax
ffffffff8000181f:	0f 82 ee 12 00 00    	jb     ffffffff80002b13 <main.main+0x1de3>
ffffffff80001825:	0f 84 f9 12 00 00    	je     ffffffff80002b24 <main.main+0x1df4>
ffffffff8000182b:	a8 0f                	test   $0xf,%al
ffffffff8000182d:	0f 85 02 13 00 00    	jne    ffffffff80002b35 <main.main+0x1e05>
ffffffff80001833:	48 8b 08             	mov    (%rax),%rcx
ffffffff80001836:	48 83 e9 01          	sub    $0x1,%rcx
ffffffff8000183a:	0f 82 d3 12 00 00    	jb     ffffffff80002b13 <main.main+0x1de3>
ffffffff80001840:	48 89 08             	mov    %rcx,(%rax)
ffffffff80001843:	48 8d 97 ff 0f 00 00 	lea    0xfff(%rdi),%rdx
ffffffff8000184a:	48 39 d1             	cmp    %rdx,%rcx
ffffffff8000184d:	0f 87 c0 12 00 00    	ja     ffffffff80002b13 <main.main+0x1de3>
ffffffff80001853:	48 89 cd             	mov    %rcx,%rbp
ffffffff80001856:	48 c1 e5 0c          	shl    $0xc,%rbp
ffffffff8000185a:	4c 01 cd             	add    %r9,%rbp
ffffffff8000185d:	0f 82 b0 12 00 00    	jb     ffffffff80002b13 <main.main+0x1de3>
ffffffff80001863:	48 85 c9             	test   %rcx,%rcx
ffffffff80001866:	75 04                	jne    ffffffff8000186c <main.main+0xb3c>
ffffffff80001868:	4c 8b 48 08          	mov    0x8(%rax),%r9
ffffffff8000186c:	48 89 ef             	mov    %rbp,%rdi
ffffffff8000186f:	4c 01 c7             	add    %r8,%rdi
ffffffff80001872:	0f 82 9b 12 00 00    	jb     ffffffff80002b13 <main.main+0x1de3>
ffffffff80001878:	0f 84 a6 12 00 00    	je     ffffffff80002b24 <main.main+0x1df4>
ffffffff8000187e:	4d 89 cd             	mov    %r9,%r13
ffffffff80001881:	ba 00 10 00 00       	mov    $0x1000,%edx
ffffffff80001886:	31 f6                	xor    %esi,%esi
ffffffff80001888:	e8 e3 e8 ff ff       	call   ffffffff80000170 <memset>
ffffffff8000188d:	48 8b 74 24 58       	mov    0x58(%rsp),%rsi
ffffffff80001892:	48 bf 00 f0 ff ff ff 	movabs $0xffffffffff000,%rdi
ffffffff80001899:	ff 0f 00 
ffffffff8000189c:	4c 8b 44 24 68       	mov    0x68(%rsp),%r8
ffffffff800018a1:	4d 89 e9             	mov    %r13,%r9
ffffffff800018a4:	49 89 f5             	mov    %rsi,%r13
ffffffff800018a7:	49 01 ed             	add    %rbp,%r13
ffffffff800018aa:	73 16                	jae    ffffffff800018c2 <main.main+0xb92>
ffffffff800018ac:	e9 62 12 00 00       	jmp    ffffffff80002b13 <main.main+0x1de3>
ffffffff800018b1:	45 31 c9             	xor    %r9d,%r9d
ffffffff800018b4:	31 ed                	xor    %ebp,%ebp
ffffffff800018b6:	49 89 f5             	mov    %rsi,%r13
ffffffff800018b9:	49 01 ed             	add    %rbp,%r13
ffffffff800018bc:	0f 82 51 12 00 00    	jb     ffffffff80002b13 <main.main+0x1de3>
ffffffff800018c2:	0f 84 5c 12 00 00    	je     ffffffff80002b24 <main.main+0x1df4>
ffffffff800018c8:	48 89 ac 24 90 00 00 	mov    %rbp,0x90(%rsp)
ffffffff800018cf:	00 
ffffffff800018d0:	48 89 9c 24 98 00 00 	mov    %rbx,0x98(%rsp)
ffffffff800018d7:	00 
ffffffff800018d8:	41 f6 c5 07          	test   $0x7,%r13b
ffffffff800018dc:	0f 85 53 12 00 00    	jne    ffffffff80002b35 <main.main+0x1e05>
ffffffff800018e2:	45 31 ff             	xor    %r15d,%r15d
ffffffff800018e5:	eb 1f                	jmp    ffffffff80001906 <main.main+0xbd6>
ffffffff800018e7:	66 0f 1f 84 00 00 00 	nopw   0x0(%rax,%rax,1)
ffffffff800018ee:	00 00 
ffffffff800018f0:	4b 89 6c fd 00       	mov    %rbp,0x0(%r13,%r15,8)
ffffffff800018f5:	49 83 c7 01          	add    $0x1,%r15
ffffffff800018f9:	49 81 ff 00 02 00 00 	cmp    $0x200,%r15
ffffffff80001900:	0f 84 7a 01 00 00    	je     ffffffff80001a80 <main.main+0xd50>
ffffffff80001906:	4b 8b 2c fe          	mov    (%r14,%r15,8),%rbp
ffffffff8000190a:	40 f6 c5 01          	test   $0x1,%bpl
ffffffff8000190e:	74 e5                	je     ffffffff800018f5 <main.main+0xbc5>
ffffffff80001910:	40 84 ed             	test   %bpl,%bpl
ffffffff80001913:	78 db                	js     ffffffff800018f0 <main.main+0xbc0>
ffffffff80001915:	48 21 fd             	and    %rdi,%rbp
ffffffff80001918:	48 01 f5             	add    %rsi,%rbp
ffffffff8000191b:	0f 82 f2 11 00 00    	jb     ffffffff80002b13 <main.main+0x1de3>
ffffffff80001921:	0f 84 fd 11 00 00    	je     ffffffff80002b24 <main.main+0x1df4>
ffffffff80001927:	40 f6 c5 07          	test   $0x7,%bpl
ffffffff8000192b:	0f 85 04 12 00 00    	jne    ffffffff80002b35 <main.main+0x1e05>
ffffffff80001931:	4d 85 c9             	test   %r9,%r9
ffffffff80001934:	0f 84 98 00 00 00    	je     ffffffff800019d2 <main.main+0xca2>
ffffffff8000193a:	4c 89 c8             	mov    %r9,%rax
ffffffff8000193d:	4c 01 c0             	add    %r8,%rax
ffffffff80001940:	0f 82 cd 11 00 00    	jb     ffffffff80002b13 <main.main+0x1de3>
ffffffff80001946:	0f 84 d8 11 00 00    	je     ffffffff80002b24 <main.main+0x1df4>
ffffffff8000194c:	a8 0f                	test   $0xf,%al
ffffffff8000194e:	0f 85 e1 11 00 00    	jne    ffffffff80002b35 <main.main+0x1e05>
ffffffff80001954:	48 8b 08             	mov    (%rax),%rcx
ffffffff80001957:	48 83 e9 01          	sub    $0x1,%rcx
ffffffff8000195b:	0f 82 b2 11 00 00    	jb     ffffffff80002b13 <main.main+0x1de3>
ffffffff80001961:	48 89 08             	mov    %rcx,(%rax)
ffffffff80001964:	48 8d 97 ff 0f 00 00 	lea    0xfff(%rdi),%rdx
ffffffff8000196b:	48 39 d1             	cmp    %rdx,%rcx
ffffffff8000196e:	0f 87 9f 11 00 00    	ja     ffffffff80002b13 <main.main+0x1de3>
ffffffff80001974:	49 89 cc             	mov    %rcx,%r12
ffffffff80001977:	49 c1 e4 0c          	shl    $0xc,%r12
ffffffff8000197b:	4d 01 cc             	add    %r9,%r12
ffffffff8000197e:	0f 82 8f 11 00 00    	jb     ffffffff80002b13 <main.main+0x1de3>
ffffffff80001984:	48 85 c9             	test   %rcx,%rcx
ffffffff80001987:	75 04                	jne    ffffffff8000198d <main.main+0xc5d>
ffffffff80001989:	4c 8b 48 08          	mov    0x8(%rax),%r9
ffffffff8000198d:	4c 89 e7             	mov    %r12,%rdi
ffffffff80001990:	4c 01 c7             	add    %r8,%rdi
ffffffff80001993:	0f 82 7a 11 00 00    	jb     ffffffff80002b13 <main.main+0x1de3>
ffffffff80001999:	0f 84 85 11 00 00    	je     ffffffff80002b24 <main.main+0x1df4>
ffffffff8000199f:	ba 00 10 00 00       	mov    $0x1000,%edx
ffffffff800019a4:	31 f6                	xor    %esi,%esi
ffffffff800019a6:	4c 89 cb             	mov    %r9,%rbx
ffffffff800019a9:	e8 c2 e7 ff ff       	call   ffffffff80000170 <memset>
ffffffff800019ae:	49 89 d9             	mov    %rbx,%r9
ffffffff800019b1:	4c 8b 44 24 68       	mov    0x68(%rsp),%r8
ffffffff800019b6:	48 8b 74 24 58       	mov    0x58(%rsp),%rsi
ffffffff800019bb:	48 bf 00 f0 ff ff ff 	movabs $0xffffffffff000,%rdi
ffffffff800019c2:	ff 0f 00 
ffffffff800019c5:	48 89 f0             	mov    %rsi,%rax
ffffffff800019c8:	4c 01 e0             	add    %r12,%rax
ffffffff800019cb:	73 17                	jae    ffffffff800019e4 <main.main+0xcb4>
ffffffff800019cd:	e9 41 11 00 00       	jmp    ffffffff80002b13 <main.main+0x1de3>
ffffffff800019d2:	45 31 c9             	xor    %r9d,%r9d
ffffffff800019d5:	45 31 e4             	xor    %r12d,%r12d
ffffffff800019d8:	48 89 f0             	mov    %rsi,%rax
ffffffff800019db:	4c 01 e0             	add    %r12,%rax
ffffffff800019de:	0f 82 2f 11 00 00    	jb     ffffffff80002b13 <main.main+0x1de3>
ffffffff800019e4:	0f 84 3a 11 00 00    	je     ffffffff80002b24 <main.main+0x1df4>
ffffffff800019ea:	a8 07                	test   $0x7,%al
ffffffff800019ec:	0f 85 43 11 00 00    	jne    ffffffff80002b35 <main.main+0x1e05>
ffffffff800019f2:	31 c9                	xor    %ecx,%ecx
ffffffff800019f4:	eb 17                	jmp    ffffffff80001a0d <main.main+0xcdd>
ffffffff800019f6:	66 2e 0f 1f 84 00 00 	cs nopw 0x0(%rax,%rax,1)
ffffffff800019fd:	00 00 00 
ffffffff80001a00:	48 83 c1 02          	add    $0x2,%rcx
ffffffff80001a04:	48 81 f9 00 02 00 00 	cmp    $0x200,%rcx
ffffffff80001a0b:	74 43                	je     ffffffff80001a50 <main.main+0xd20>
ffffffff80001a0d:	48 8b 54 cd 00       	mov    0x0(%rbp,%rcx,8),%rdx
ffffffff80001a12:	f6 c2 01             	test   $0x1,%dl
ffffffff80001a15:	75 19                	jne    ffffffff80001a30 <main.main+0xd00>
ffffffff80001a17:	48 8b 54 cd 08       	mov    0x8(%rbp,%rcx,8),%rdx
ffffffff80001a1c:	f6 c2 01             	test   $0x1,%dl
ffffffff80001a1f:	74 df                	je     ffffffff80001a00 <main.main+0xcd0>
ffffffff80001a21:	eb 1b                	jmp    ffffffff80001a3e <main.main+0xd0e>
ffffffff80001a23:	66 2e 0f 1f 84 00 00 	cs nopw 0x0(%rax,%rax,1)
ffffffff80001a2a:	00 00 00 
ffffffff80001a2d:	0f 1f 00             	nopl   (%rax)
ffffffff80001a30:	48 89 14 c8          	mov    %rdx,(%rax,%rcx,8)
ffffffff80001a34:	48 8b 54 cd 08       	mov    0x8(%rbp,%rcx,8),%rdx
ffffffff80001a39:	f6 c2 01             	test   $0x1,%dl
ffffffff80001a3c:	74 c2                	je     ffffffff80001a00 <main.main+0xcd0>
ffffffff80001a3e:	48 89 54 c8 08       	mov    %rdx,0x8(%rax,%rcx,8)
ffffffff80001a43:	eb bb                	jmp    ffffffff80001a00 <main.main+0xcd0>
ffffffff80001a45:	66 2e 0f 1f 84 00 00 	cs nopw 0x0(%rax,%rax,1)
ffffffff80001a4c:	00 00 00 
ffffffff80001a4f:	90                   	nop
ffffffff80001a50:	4b 8b 04 fe          	mov    (%r14,%r15,8),%rax
ffffffff80001a54:	4b 89 44 fd 00       	mov    %rax,0x0(%r13,%r15,8)
ffffffff80001a59:	4b 8b 44 fd 00       	mov    0x0(%r13,%r15,8),%rax
ffffffff80001a5e:	48 b9 ff 0f 00 00 00 	movabs $0xfff0000000000fff,%rcx
ffffffff80001a65:	00 f0 ff 
ffffffff80001a68:	48 21 c8             	and    %rcx,%rax
ffffffff80001a6b:	49 21 fc             	and    %rdi,%r12
ffffffff80001a6e:	49 09 c4             	or     %rax,%r12
ffffffff80001a71:	4f 89 64 fd 00       	mov    %r12,0x0(%r13,%r15,8)
ffffffff80001a76:	e9 7a fe ff ff       	jmp    ffffffff800018f5 <main.main+0xbc5>
ffffffff80001a7b:	0f 1f 44 00 00       	nopl   0x0(%rax,%rax,1)
ffffffff80001a80:	4c 8b bc 24 88 00 00 	mov    0x88(%rsp),%r15
ffffffff80001a87:	00 
ffffffff80001a88:	48 8b 9c 24 98 00 00 	mov    0x98(%rsp),%rbx
ffffffff80001a8f:	00 
ffffffff80001a90:	49 8b 04 df          	mov    (%r15,%rbx,8),%rax
ffffffff80001a94:	4c 8b a4 24 80 00 00 	mov    0x80(%rsp),%r12
ffffffff80001a9b:	00 
ffffffff80001a9c:	49 89 04 dc          	mov    %rax,(%r12,%rbx,8)
ffffffff80001aa0:	49 8b 04 dc          	mov    (%r12,%rbx,8),%rax
ffffffff80001aa4:	48 b9 ff 0f 00 00 00 	movabs $0xfff0000000000fff,%rcx
ffffffff80001aab:	00 f0 ff 
ffffffff80001aae:	48 21 c8             	and    %rcx,%rax
ffffffff80001ab1:	48 8b 8c 24 90 00 00 	mov    0x90(%rsp),%rcx
ffffffff80001ab8:	00 
ffffffff80001ab9:	48 21 f9             	and    %rdi,%rcx
ffffffff80001abc:	48 09 c1             	or     %rax,%rcx
ffffffff80001abf:	49 89 0c dc          	mov    %rcx,(%r12,%rbx,8)
ffffffff80001ac3:	e9 0c fd ff ff       	jmp    ffffffff800017d4 <main.main+0xaa4>
ffffffff80001ac8:	48 8b 7c 24 60       	mov    0x60(%rsp),%rdi
ffffffff80001acd:	48 81 e7 00 f0 ff ff 	and    $0xfffffffffffff000,%rdi
ffffffff80001ad4:	48 89 7c 24 60       	mov    %rdi,0x60(%rsp)
ffffffff80001ad9:	e8 47 f0 ff ff       	call   ffffffff80000b25 <set_cr3>
ffffffff80001ade:	48 8d 05 ed 70 01 00 	lea    0x170ed(%rip),%rax        # ffffffff80018bd2 <__anon_3536>
ffffffff80001ae5:	48 89 04 24          	mov    %rax,(%rsp)
ffffffff80001ae9:	48 c7 44 24 08 04 00 	movq   $0x4,0x8(%rsp)
ffffffff80001af0:	00 00 
ffffffff80001af2:	48 8d 3d 77 95 01 00 	lea    0x19577(%rip),%rdi        # ffffffff8001b070 <x64.tss.tss_iopb+0x70>
ffffffff80001af9:	48 89 e6             	mov    %rsp,%rsi
ffffffff80001afc:	e8 cf 19 00 00       	call   ffffffff800034d0 <io.Writer.print__anon_2200>
ffffffff80001b01:	66 85 c0             	test   %ax,%ax
ffffffff80001b04:	0f 85 4d 10 00 00    	jne    ffffffff80002b57 <main.main+0x1e27>
ffffffff80001b0a:	66 ba f8 03          	mov    $0x3f8,%dx
ffffffff80001b0e:	b0 6c                	mov    $0x6c,%al
ffffffff80001b10:	ee                   	out    %al,(%dx)
ffffffff80001b11:	b0 6f                	mov    $0x6f,%al
ffffffff80001b13:	ee                   	out    %al,(%dx)
ffffffff80001b14:	b0 61                	mov    $0x61,%al
ffffffff80001b16:	ee                   	out    %al,(%dx)
ffffffff80001b17:	b0 64                	mov    $0x64,%al
ffffffff80001b19:	ee                   	out    %al,(%dx)
ffffffff80001b1a:	b0 69                	mov    $0x69,%al
ffffffff80001b1c:	ee                   	out    %al,(%dx)
ffffffff80001b1d:	b0 6e                	mov    $0x6e,%al
ffffffff80001b1f:	ee                   	out    %al,(%dx)
ffffffff80001b20:	b0 67                	mov    $0x67,%al
ffffffff80001b22:	ee                   	out    %al,(%dx)
ffffffff80001b23:	b0 20                	mov    $0x20,%al
ffffffff80001b25:	ee                   	out    %al,(%dx)
ffffffff80001b26:	b0 65                	mov    $0x65,%al
ffffffff80001b28:	ee                   	out    %al,(%dx)
ffffffff80001b29:	b0 6c                	mov    $0x6c,%al
ffffffff80001b2b:	ee                   	out    %al,(%dx)
ffffffff80001b2c:	b0 66                	mov    $0x66,%al
ffffffff80001b2e:	ee                   	out    %al,(%dx)
ffffffff80001b2f:	b0 0a                	mov    $0xa,%al
ffffffff80001b31:	ee                   	out    %al,(%dx)
ffffffff80001b32:	31 d2                	xor    %edx,%edx
ffffffff80001b34:	4c 8d 35 a5 56 01 00 	lea    0x156a5(%rip),%r14        # ffffffff800171e0 <main.init_file>
ffffffff80001b3b:	49 89 e4             	mov    %rsp,%r12
ffffffff80001b3e:	48 8d 0d 8d 70 01 00 	lea    0x1708d(%rip),%rcx        # ffffffff80018bd2 <__anon_3536>
ffffffff80001b45:	eb 26                	jmp    ffffffff80001b6d <main.main+0xe3d>
ffffffff80001b47:	66 0f 1f 84 00 00 00 	nopw   0x0(%rax,%rax,1)
ffffffff80001b4e:	00 00 
ffffffff80001b50:	48 8d 0d 7b 70 01 00 	lea    0x1707b(%rip),%rcx        # ffffffff80018bd2 <__anon_3536>
ffffffff80001b57:	48 8b 94 24 80 00 00 	mov    0x80(%rsp),%rdx
ffffffff80001b5e:	00 
ffffffff80001b5f:	48 83 c2 01          	add    $0x1,%rdx
ffffffff80001b63:	48 83 fa 04          	cmp    $0x4,%rdx
ffffffff80001b67:	0f 84 5f 02 00 00    	je     ffffffff80001dcc <main.main+0x109c>
ffffffff80001b6d:	48 6b c2 38          	imul   $0x38,%rdx,%rax
ffffffff80001b71:	42 83 7c 30 40 01    	cmpl   $0x1,0x40(%rax,%r14,1)
ffffffff80001b77:	75 e6                	jne    ffffffff80001b5f <main.main+0xe2f>
ffffffff80001b79:	4a 8d 0c 30          	lea    (%rax,%r14,1),%rcx
ffffffff80001b7d:	48 83 c1 40          	add    $0x40,%rcx
ffffffff80001b81:	4a 8b 74 30 50       	mov    0x50(%rax,%r14,1),%rsi
ffffffff80001b86:	4c 8b 79 28          	mov    0x28(%rcx),%r15
ffffffff80001b8a:	49 01 f7             	add    %rsi,%r15
ffffffff80001b8d:	0f 82 80 0f 00 00    	jb     ffffffff80002b13 <main.main+0x1de3>
ffffffff80001b93:	49 83 ef 01          	sub    $0x1,%r15
ffffffff80001b97:	0f 82 76 0f 00 00    	jb     ffffffff80002b13 <main.main+0x1de3>
ffffffff80001b9d:	49 81 e7 00 f0 ff ff 	and    $0xfffffffffffff000,%r15
ffffffff80001ba4:	48 89 f5             	mov    %rsi,%rbp
ffffffff80001ba7:	48 81 e5 00 f0 ff ff 	and    $0xfffffffffffff000,%rbp
ffffffff80001bae:	49 29 ef             	sub    %rbp,%r15
ffffffff80001bb1:	0f 82 5c 0f 00 00    	jb     ffffffff80002b13 <main.main+0x1de3>
ffffffff80001bb7:	48 89 74 24 68       	mov    %rsi,0x68(%rsp)
ffffffff80001bbc:	48 89 94 24 80 00 00 	mov    %rdx,0x80(%rsp)
ffffffff80001bc3:	00 
ffffffff80001bc4:	49 81 ff 00 f0 ff ff 	cmp    $0xfffffffffffff000,%r15
ffffffff80001bcb:	0f 84 42 0f 00 00    	je     ffffffff80002b13 <main.main+0x1de3>
ffffffff80001bd1:	42 8b 4c 30 44       	mov    0x44(%rax,%r14,1),%ecx
ffffffff80001bd6:	89 8c 24 88 00 00 00 	mov    %ecx,0x88(%rsp)
ffffffff80001bdd:	4a 8b 4c 30 48       	mov    0x48(%rax,%r14,1),%rcx
ffffffff80001be2:	48 89 8c 24 90 00 00 	mov    %rcx,0x90(%rsp)
ffffffff80001be9:	00 
ffffffff80001bea:	4a 8b 44 30 60       	mov    0x60(%rax,%r14,1),%rax
ffffffff80001bef:	48 89 84 24 98 00 00 	mov    %rax,0x98(%rsp)
ffffffff80001bf6:	00 
ffffffff80001bf7:	49 81 c7 00 10 00 00 	add    $0x1000,%r15
ffffffff80001bfe:	49 c1 ef 0c          	shr    $0xc,%r15
ffffffff80001c02:	45 31 ed             	xor    %r13d,%r13d
ffffffff80001c05:	4d 89 fe             	mov    %r15,%r14
ffffffff80001c08:	0f 1f 84 00 00 00 00 	nopl   0x0(%rax,%rax,1)
ffffffff80001c0f:	00 
ffffffff80001c10:	48 8b 5c 24 70       	mov    0x70(%rsp),%rbx
ffffffff80001c15:	48 85 db             	test   %rbx,%rbx
ffffffff80001c18:	0f 84 92 00 00 00    	je     ffffffff80001cb0 <main.main+0xf80>
ffffffff80001c1e:	48 8b 7c 24 78       	mov    0x78(%rsp),%rdi
ffffffff80001c23:	48 89 d8             	mov    %rbx,%rax
ffffffff80001c26:	48 01 f8             	add    %rdi,%rax
ffffffff80001c29:	0f 82 e4 0e 00 00    	jb     ffffffff80002b13 <main.main+0x1de3>
ffffffff80001c2f:	0f 84 ef 0e 00 00    	je     ffffffff80002b24 <main.main+0x1df4>
ffffffff80001c35:	a8 0f                	test   $0xf,%al
ffffffff80001c37:	0f 85 f8 0e 00 00    	jne    ffffffff80002b35 <main.main+0x1e05>
ffffffff80001c3d:	48 8b 08             	mov    (%rax),%rcx
ffffffff80001c40:	48 83 e9 01          	sub    $0x1,%rcx
ffffffff80001c44:	0f 82 c9 0e 00 00    	jb     ffffffff80002b13 <main.main+0x1de3>
ffffffff80001c4a:	48 89 08             	mov    %rcx,(%rax)
ffffffff80001c4d:	48 ba 00 f0 ff ff ff 	movabs $0xffffffffff000,%rdx
ffffffff80001c54:	ff 0f 00 
ffffffff80001c57:	48 81 c2 ff 0f 00 00 	add    $0xfff,%rdx
ffffffff80001c5e:	48 39 d1             	cmp    %rdx,%rcx
ffffffff80001c61:	0f 87 ac 0e 00 00    	ja     ffffffff80002b13 <main.main+0x1de3>
ffffffff80001c67:	48 89 ca             	mov    %rcx,%rdx
ffffffff80001c6a:	48 c1 e2 0c          	shl    $0xc,%rdx
ffffffff80001c6e:	48 01 d3             	add    %rdx,%rbx
ffffffff80001c71:	0f 82 9c 0e 00 00    	jb     ffffffff80002b13 <main.main+0x1de3>
ffffffff80001c77:	48 85 c9             	test   %rcx,%rcx
ffffffff80001c7a:	75 09                	jne    ffffffff80001c85 <main.main+0xf55>
ffffffff80001c7c:	48 8b 40 08          	mov    0x8(%rax),%rax
ffffffff80001c80:	48 89 44 24 70       	mov    %rax,0x70(%rsp)
ffffffff80001c85:	48 01 df             	add    %rbx,%rdi
ffffffff80001c88:	0f 82 85 0e 00 00    	jb     ffffffff80002b13 <main.main+0x1de3>
ffffffff80001c8e:	0f 84 90 0e 00 00    	je     ffffffff80002b24 <main.main+0x1df4>
ffffffff80001c94:	ba 00 10 00 00       	mov    $0x1000,%edx
ffffffff80001c99:	31 f6                	xor    %esi,%esi
ffffffff80001c9b:	e8 d0 e4 ff ff       	call   ffffffff80000170 <memset>
ffffffff80001ca0:	48 89 e8             	mov    %rbp,%rax
ffffffff80001ca3:	4c 01 e8             	add    %r13,%rax
ffffffff80001ca6:	73 16                	jae    ffffffff80001cbe <main.main+0xf8e>
ffffffff80001ca8:	e9 66 0e 00 00       	jmp    ffffffff80002b13 <main.main+0x1de3>
ffffffff80001cad:	0f 1f 00             	nopl   (%rax)
ffffffff80001cb0:	31 db                	xor    %ebx,%ebx
ffffffff80001cb2:	48 89 e8             	mov    %rbp,%rax
ffffffff80001cb5:	4c 01 e8             	add    %r13,%rax
ffffffff80001cb8:	0f 82 55 0e 00 00    	jb     ffffffff80002b13 <main.main+0x1de3>
ffffffff80001cbe:	48 89 04 24          	mov    %rax,(%rsp)
ffffffff80001cc2:	c6 44 24 08 00       	movb   $0x0,0x8(%rsp)
ffffffff80001cc7:	48 8b 7c 24 60       	mov    0x60(%rsp),%rdi
ffffffff80001ccc:	4c 89 e6             	mov    %r12,%rsi
ffffffff80001ccf:	48 89 da             	mov    %rbx,%rdx
ffffffff80001cd2:	48 8b 4c 24 58       	mov    0x58(%rsp),%rcx
ffffffff80001cd7:	4c 8d 44 24 70       	lea    0x70(%rsp),%r8
ffffffff80001cdc:	4c 8d 0d 11 6e 01 00 	lea    0x16e11(%rip),%r9        # ffffffff80018af4 <main.init_file+0x1914>
ffffffff80001ce3:	e8 f8 10 00 00       	call   ffffffff80002de0 <x64.registers.CR3.map>
ffffffff80001ce8:	66 85 c0             	test   %ax,%ax
ffffffff80001ceb:	0f 85 55 0e 00 00    	jne    ffffffff80002b46 <main.main+0x1e16>
ffffffff80001cf1:	49 81 c5 00 10 00 00 	add    $0x1000,%r13
ffffffff80001cf8:	49 83 c6 ff          	add    $0xffffffffffffffff,%r14
ffffffff80001cfc:	0f 85 0e ff ff ff    	jne    ffffffff80001c10 <main.main+0xee0>
ffffffff80001d02:	48 8b 7c 24 68       	mov    0x68(%rsp),%rdi
ffffffff80001d07:	48 85 ff             	test   %rdi,%rdi
ffffffff80001d0a:	0f 84 14 0e 00 00    	je     ffffffff80002b24 <main.main+0x1df4>
ffffffff80001d10:	48 8b 94 24 98 00 00 	mov    0x98(%rsp),%rdx
ffffffff80001d17:	00 
ffffffff80001d18:	48 8b 8c 24 90 00 00 	mov    0x90(%rsp),%rcx
ffffffff80001d1f:	00 
ffffffff80001d20:	48 01 ca             	add    %rcx,%rdx
ffffffff80001d23:	4c 8d 35 b6 54 01 00 	lea    0x154b6(%rip),%r14        # ffffffff800171e0 <main.init_file>
ffffffff80001d2a:	4c 8d 6c 24 48       	lea    0x48(%rsp),%r13
ffffffff80001d2f:	0f 82 de 0d 00 00    	jb     ffffffff80002b13 <main.main+0x1de3>
ffffffff80001d35:	48 81 fa 11 19 00 00 	cmp    $0x1911,%rdx
ffffffff80001d3c:	0f 83 26 0e 00 00    	jae    ffffffff80002b68 <main.main+0x1e38>
ffffffff80001d42:	49 8d 34 0e          	lea    (%r14,%rcx,1),%rsi
ffffffff80001d46:	49 8d 04 16          	lea    (%r14,%rdx,1),%rax
ffffffff80001d4a:	48 29 ca             	sub    %rcx,%rdx
ffffffff80001d4d:	48 39 f8             	cmp    %rdi,%rax
ffffffff80001d50:	76 0d                	jbe    ffffffff80001d5f <main.main+0x102f>
ffffffff80001d52:	48 8d 04 17          	lea    (%rdi,%rdx,1),%rax
ffffffff80001d56:	48 39 c6             	cmp    %rax,%rsi
ffffffff80001d59:	0f 82 1a 0e 00 00    	jb     ffffffff80002b79 <main.main+0x1e49>
ffffffff80001d5f:	e8 bc e3 ff ff       	call   ffffffff80000120 <memcpy>
ffffffff80001d64:	8b 8c 24 88 00 00 00 	mov    0x88(%rsp),%ecx
ffffffff80001d6b:	89 c8                	mov    %ecx,%eax
ffffffff80001d6d:	d0 e8                	shr    $1,%al
ffffffff80001d6f:	24 01                	and    $0x1,%al
ffffffff80001d71:	88 44 24 48          	mov    %al,0x48(%rsp)
ffffffff80001d75:	83 e1 01             	and    $0x1,%ecx
ffffffff80001d78:	88 4c 24 49          	mov    %cl,0x49(%rsp)
ffffffff80001d7c:	c6 44 24 4a 01       	movb   $0x1,0x4a(%rsp)
ffffffff80001d81:	31 db                	xor    %ebx,%ebx
ffffffff80001d83:	66 2e 0f 1f 84 00 00 	cs nopw 0x0(%rax,%rax,1)
ffffffff80001d8a:	00 00 00 
ffffffff80001d8d:	0f 1f 00             	nopl   (%rax)
ffffffff80001d90:	48 89 e8             	mov    %rbp,%rax
ffffffff80001d93:	48 01 d8             	add    %rbx,%rax
ffffffff80001d96:	0f 82 77 0d 00 00    	jb     ffffffff80002b13 <main.main+0x1de3>
ffffffff80001d9c:	48 89 04 24          	mov    %rax,(%rsp)
ffffffff80001da0:	c6 44 24 08 00       	movb   $0x0,0x8(%rsp)
ffffffff80001da5:	48 8b 7c 24 60       	mov    0x60(%rsp),%rdi
ffffffff80001daa:	4c 89 e6             	mov    %r12,%rsi
ffffffff80001dad:	48 8b 54 24 58       	mov    0x58(%rsp),%rdx
ffffffff80001db2:	4c 89 e9             	mov    %r13,%rcx
ffffffff80001db5:	e8 46 14 00 00       	call   ffffffff80003200 <x64.registers.CR3.setFlags>
ffffffff80001dba:	48 81 c3 00 10 00 00 	add    $0x1000,%rbx
ffffffff80001dc1:	49 83 c7 ff          	add    $0xffffffffffffffff,%r15
ffffffff80001dc5:	75 c9                	jne    ffffffff80001d90 <main.main+0x1060>
ffffffff80001dc7:	e9 84 fd ff ff       	jmp    ffffffff80001b50 <main.main+0xe20>
ffffffff80001dcc:	48 89 4c 24 48       	mov    %rcx,0x48(%rsp)
ffffffff80001dd1:	48 c7 44 24 50 04 00 	movq   $0x4,0x50(%rsp)
ffffffff80001dd8:	00 00 
ffffffff80001dda:	48 8d 3d 8f 92 01 00 	lea    0x1928f(%rip),%rdi        # ffffffff8001b070 <x64.tss.tss_iopb+0x70>
ffffffff80001de1:	48 8d 74 24 48       	lea    0x48(%rsp),%rsi
ffffffff80001de6:	e8 e5 16 00 00       	call   ffffffff800034d0 <io.Writer.print__anon_2200>
ffffffff80001deb:	66 85 c0             	test   %ax,%ax
ffffffff80001dee:	0f 85 63 0d 00 00    	jne    ffffffff80002b57 <main.main+0x1e27>
ffffffff80001df4:	66 ba f8 03          	mov    $0x3f8,%dx
ffffffff80001df8:	b0 65                	mov    $0x65,%al
ffffffff80001dfa:	ee                   	out    %al,(%dx)
ffffffff80001dfb:	b0 6e                	mov    $0x6e,%al
ffffffff80001dfd:	ee                   	out    %al,(%dx)
ffffffff80001dfe:	b0 74                	mov    $0x74,%al
ffffffff80001e00:	ee                   	out    %al,(%dx)
ffffffff80001e01:	b0 72                	mov    $0x72,%al
ffffffff80001e03:	ee                   	out    %al,(%dx)
ffffffff80001e04:	b0 79                	mov    $0x79,%al
ffffffff80001e06:	ee                   	out    %al,(%dx)
ffffffff80001e07:	b0 20                	mov    $0x20,%al
ffffffff80001e09:	ee                   	out    %al,(%dx)
ffffffff80001e0a:	b0 70                	mov    $0x70,%al
ffffffff80001e0c:	ee                   	out    %al,(%dx)
ffffffff80001e0d:	b0 6f                	mov    $0x6f,%al
ffffffff80001e0f:	ee                   	out    %al,(%dx)
ffffffff80001e10:	b0 69                	mov    $0x69,%al
ffffffff80001e12:	ee                   	out    %al,(%dx)
ffffffff80001e13:	b0 6e                	mov    $0x6e,%al
ffffffff80001e15:	ee                   	out    %al,(%dx)
ffffffff80001e16:	b0 74                	mov    $0x74,%al
ffffffff80001e18:	ee                   	out    %al,(%dx)
ffffffff80001e19:	b0 3a                	mov    $0x3a,%al
ffffffff80001e1b:	ee                   	out    %al,(%dx)
ffffffff80001e1c:	b0 20                	mov    $0x20,%al
ffffffff80001e1e:	ee                   	out    %al,(%dx)
ffffffff80001e1f:	b0 30                	mov    $0x30,%al
ffffffff80001e21:	ee                   	out    %al,(%dx)
ffffffff80001e22:	b0 78                	mov    $0x78,%al
ffffffff80001e24:	ee                   	out    %al,(%dx)
ffffffff80001e25:	48 b8 aa aa 31 30 30 	movabs $0x333131303031aaaa,%rax
ffffffff80001e2c:	31 31 33 
ffffffff80001e2f:	48 89 44 24 38       	mov    %rax,0x38(%rsp)
ffffffff80001e34:	48 b8 aa aa aa aa aa 	movabs $0xaaaaaaaaaaaaaaaa,%rax
ffffffff80001e3b:	aa aa aa 
ffffffff80001e3e:	48 89 44 24 30       	mov    %rax,0x30(%rsp)
ffffffff80001e43:	48 89 44 24 28       	mov    %rax,0x28(%rsp)
ffffffff80001e48:	48 89 44 24 20       	mov    %rax,0x20(%rsp)
ffffffff80001e4d:	48 89 44 24 18       	mov    %rax,0x18(%rsp)
ffffffff80001e52:	48 89 44 24 10       	mov    %rax,0x10(%rsp)
ffffffff80001e57:	48 89 44 24 08       	mov    %rax,0x8(%rsp)
ffffffff80001e5c:	48 89 04 24          	mov    %rax,(%rsp)
ffffffff80001e60:	c6 44 24 40 30       	movb   $0x30,0x40(%rsp)
ffffffff80001e65:	48 8d 7c 24 3a       	lea    0x3a(%rsp),%rdi
ffffffff80001e6a:	48 8d 15 8f 6c 01 00 	lea    0x16c8f(%rip),%rdx        # ffffffff80018b00 <__anon_5249+0x9>
ffffffff80001e71:	48 8d 0d f8 91 01 00 	lea    0x191f8(%rip),%rcx        # ffffffff8001b070 <x64.tss.tss_iopb+0x70>
ffffffff80001e78:	be 07 00 00 00       	mov    $0x7,%esi
ffffffff80001e7d:	e8 fe 1a 00 00       	call   ffffffff80003980 <fmt.formatBuf__anon_2525>
ffffffff80001e82:	66 85 c0             	test   %ax,%ax
ffffffff80001e85:	0f 85 cc 0c 00 00    	jne    ffffffff80002b57 <main.main+0x1e27>
ffffffff80001e8b:	66 ba f8 03          	mov    $0x3f8,%dx
ffffffff80001e8f:	b0 0a                	mov    $0xa,%al
ffffffff80001e91:	ee                   	out    %al,(%dx)
ffffffff80001e92:	48 8d 05 39 6d 01 00 	lea    0x16d39(%rip),%rax        # ffffffff80018bd2 <__anon_3536>
ffffffff80001e99:	48 89 04 24          	mov    %rax,(%rsp)
ffffffff80001e9d:	48 c7 44 24 08 04 00 	movq   $0x4,0x8(%rsp)
ffffffff80001ea4:	00 00 
ffffffff80001ea6:	48 8d 3d c3 91 01 00 	lea    0x191c3(%rip),%rdi        # ffffffff8001b070 <x64.tss.tss_iopb+0x70>
ffffffff80001ead:	48 89 e6             	mov    %rsp,%rsi
ffffffff80001eb0:	e8 1b 16 00 00       	call   ffffffff800034d0 <io.Writer.print__anon_2200>
ffffffff80001eb5:	66 85 c0             	test   %ax,%ax
ffffffff80001eb8:	0f 85 99 0c 00 00    	jne    ffffffff80002b57 <main.main+0x1e27>
ffffffff80001ebe:	66 ba f8 03          	mov    $0x3f8,%dx
ffffffff80001ec2:	b0 63                	mov    $0x63,%al
ffffffff80001ec4:	ee                   	out    %al,(%dx)
ffffffff80001ec5:	b0 72                	mov    $0x72,%al
ffffffff80001ec7:	ee                   	out    %al,(%dx)
ffffffff80001ec8:	b0 65                	mov    $0x65,%al
ffffffff80001eca:	ee                   	out    %al,(%dx)
ffffffff80001ecb:	b0 61                	mov    $0x61,%al
ffffffff80001ecd:	ee                   	out    %al,(%dx)
ffffffff80001ece:	b0 74                	mov    $0x74,%al
ffffffff80001ed0:	ee                   	out    %al,(%dx)
ffffffff80001ed1:	b0 69                	mov    $0x69,%al
ffffffff80001ed3:	ee                   	out    %al,(%dx)
ffffffff80001ed4:	b0 6e                	mov    $0x6e,%al
ffffffff80001ed6:	ee                   	out    %al,(%dx)
ffffffff80001ed7:	b0 67                	mov    $0x67,%al
ffffffff80001ed9:	ee                   	out    %al,(%dx)
ffffffff80001eda:	b0 20                	mov    $0x20,%al
ffffffff80001edc:	ee                   	out    %al,(%dx)
ffffffff80001edd:	b0 75                	mov    $0x75,%al
ffffffff80001edf:	ee                   	out    %al,(%dx)
ffffffff80001ee0:	b0 73                	mov    $0x73,%al
ffffffff80001ee2:	ee                   	out    %al,(%dx)
ffffffff80001ee3:	b0 65                	mov    $0x65,%al
ffffffff80001ee5:	ee                   	out    %al,(%dx)
ffffffff80001ee6:	b0 72                	mov    $0x72,%al
ffffffff80001ee8:	ee                   	out    %al,(%dx)
ffffffff80001ee9:	b0 20                	mov    $0x20,%al
ffffffff80001eeb:	ee                   	out    %al,(%dx)
ffffffff80001eec:	b0 6d                	mov    $0x6d,%al
ffffffff80001eee:	ee                   	out    %al,(%dx)
ffffffff80001eef:	b0 6f                	mov    $0x6f,%al
ffffffff80001ef1:	ee                   	out    %al,(%dx)
ffffffff80001ef2:	b0 64                	mov    $0x64,%al
ffffffff80001ef4:	ee                   	out    %al,(%dx)
ffffffff80001ef5:	b0 65                	mov    $0x65,%al
ffffffff80001ef7:	ee                   	out    %al,(%dx)
ffffffff80001ef8:	b0 20                	mov    $0x20,%al
ffffffff80001efa:	ee                   	out    %al,(%dx)
ffffffff80001efb:	b0 73                	mov    $0x73,%al
ffffffff80001efd:	ee                   	out    %al,(%dx)
ffffffff80001efe:	b0 74                	mov    $0x74,%al
ffffffff80001f00:	ee                   	out    %al,(%dx)
ffffffff80001f01:	b0 61                	mov    $0x61,%al
ffffffff80001f03:	ee                   	out    %al,(%dx)
ffffffff80001f04:	b0 63                	mov    $0x63,%al
ffffffff80001f06:	ee                   	out    %al,(%dx)
ffffffff80001f07:	b0 6b                	mov    $0x6b,%al
ffffffff80001f09:	ee                   	out    %al,(%dx)
ffffffff80001f0a:	b0 0a                	mov    $0xa,%al
ffffffff80001f0c:	ee                   	out    %al,(%dx)
ffffffff80001f0d:	48 8d 5c 24 70       	lea    0x70(%rsp),%rbx
ffffffff80001f12:	48 89 df             	mov    %rbx,%rdi
ffffffff80001f15:	e8 26 0e 00 00       	call   ffffffff80002d40 <pmm.FrameAllocator.allocate_frame>
ffffffff80001f1a:	48 8d 35 07 6e 01 00 	lea    0x16e07(%rip),%rsi        # ffffffff80018d28 <__anon_3256+0x12>
ffffffff80001f21:	4c 8d 0d c9 6b 01 00 	lea    0x16bc9(%rip),%r9        # ffffffff80018af1 <main.init_file+0x1911>
ffffffff80001f28:	48 8b 7c 24 60       	mov    0x60(%rsp),%rdi
ffffffff80001f2d:	48 89 c2             	mov    %rax,%rdx
ffffffff80001f30:	4c 8b 74 24 58       	mov    0x58(%rsp),%r14
ffffffff80001f35:	4c 89 f1             	mov    %r14,%rcx
ffffffff80001f38:	49 89 d8             	mov    %rbx,%r8
ffffffff80001f3b:	e8 a0 0e 00 00       	call   ffffffff80002de0 <x64.registers.CR3.map>
ffffffff80001f40:	66 85 c0             	test   %ax,%ax
ffffffff80001f43:	0f 85 fd 0b 00 00    	jne    ffffffff80002b46 <main.main+0x1e16>
ffffffff80001f49:	48 8d 7c 24 70       	lea    0x70(%rsp),%rdi
ffffffff80001f4e:	e8 ed 0d 00 00       	call   ffffffff80002d40 <pmm.FrameAllocator.allocate_frame>
ffffffff80001f53:	48 89 c3             	mov    %rax,%rbx
ffffffff80001f56:	4c 01 f3             	add    %r14,%rbx
ffffffff80001f59:	0f 82 b4 0b 00 00    	jb     ffffffff80002b13 <main.main+0x1de3>
ffffffff80001f5f:	48 89 1d 9a b0 01 00 	mov    %rbx,0x1b09a(%rip)        # ffffffff8001d000 <main.kernel_rsp>
ffffffff80001f66:	48 8d 05 65 6c 01 00 	lea    0x16c65(%rip),%rax        # ffffffff80018bd2 <__anon_3536>
ffffffff80001f6d:	48 89 44 24 48       	mov    %rax,0x48(%rsp)
ffffffff80001f72:	48 c7 44 24 50 04 00 	movq   $0x4,0x50(%rsp)
ffffffff80001f79:	00 00 
ffffffff80001f7b:	48 8d 3d ee 90 01 00 	lea    0x190ee(%rip),%rdi        # ffffffff8001b070 <x64.tss.tss_iopb+0x70>
ffffffff80001f82:	48 8d 74 24 48       	lea    0x48(%rsp),%rsi
ffffffff80001f87:	e8 44 15 00 00       	call   ffffffff800034d0 <io.Writer.print__anon_2200>
ffffffff80001f8c:	66 85 c0             	test   %ax,%ax
ffffffff80001f8f:	0f 85 c2 0b 00 00    	jne    ffffffff80002b57 <main.main+0x1e27>
ffffffff80001f95:	66 ba f8 03          	mov    $0x3f8,%dx
ffffffff80001f99:	b0 6b                	mov    $0x6b,%al
ffffffff80001f9b:	ee                   	out    %al,(%dx)
ffffffff80001f9c:	b0 65                	mov    $0x65,%al
ffffffff80001f9e:	ee                   	out    %al,(%dx)
ffffffff80001f9f:	b0 72                	mov    $0x72,%al
ffffffff80001fa1:	ee                   	out    %al,(%dx)
ffffffff80001fa2:	b0 6e                	mov    $0x6e,%al
ffffffff80001fa4:	ee                   	out    %al,(%dx)
ffffffff80001fa5:	b0 65                	mov    $0x65,%al
ffffffff80001fa7:	ee                   	out    %al,(%dx)
ffffffff80001fa8:	b0 6c                	mov    $0x6c,%al
ffffffff80001faa:	ee                   	out    %al,(%dx)
ffffffff80001fab:	b0 20                	mov    $0x20,%al
ffffffff80001fad:	ee                   	out    %al,(%dx)
ffffffff80001fae:	b0 72                	mov    $0x72,%al
ffffffff80001fb0:	ee                   	out    %al,(%dx)
ffffffff80001fb1:	b0 73                	mov    $0x73,%al
ffffffff80001fb3:	ee                   	out    %al,(%dx)
ffffffff80001fb4:	b0 70                	mov    $0x70,%al
ffffffff80001fb6:	ee                   	out    %al,(%dx)
ffffffff80001fb7:	b0 3a                	mov    $0x3a,%al
ffffffff80001fb9:	ee                   	out    %al,(%dx)
ffffffff80001fba:	b0 20                	mov    $0x20,%al
ffffffff80001fbc:	ee                   	out    %al,(%dx)
ffffffff80001fbd:	b0 30                	mov    $0x30,%al
ffffffff80001fbf:	ee                   	out    %al,(%dx)
ffffffff80001fc0:	b0 78                	mov    $0x78,%al
ffffffff80001fc2:	ee                   	out    %al,(%dx)
ffffffff80001fc3:	48 b8 aa aa aa aa aa 	movabs $0xaaaaaaaaaaaaaaaa,%rax
ffffffff80001fca:	aa aa aa 
ffffffff80001fcd:	48 89 44 24 38       	mov    %rax,0x38(%rsp)
ffffffff80001fd2:	48 89 44 24 30       	mov    %rax,0x30(%rsp)
ffffffff80001fd7:	48 89 44 24 28       	mov    %rax,0x28(%rsp)
ffffffff80001fdc:	48 89 44 24 20       	mov    %rax,0x20(%rsp)
ffffffff80001fe1:	48 89 44 24 18       	mov    %rax,0x18(%rsp)
ffffffff80001fe6:	48 89 44 24 10       	mov    %rax,0x10(%rsp)
ffffffff80001feb:	48 89 44 24 08       	mov    %rax,0x8(%rsp)
ffffffff80001ff0:	48 89 04 24          	mov    %rax,(%rsp)
ffffffff80001ff4:	c6 44 24 40 aa       	movb   $0xaa,0x40(%rsp)
ffffffff80001ff9:	31 f6                	xor    %esi,%esi
ffffffff80001ffb:	48 89 d8             	mov    %rbx,%rax
ffffffff80001ffe:	66 90                	xchg   %ax,%ax
ffffffff80002000:	89 d9                	mov    %ebx,%ecx
ffffffff80002002:	80 e1 0f             	and    $0xf,%cl
ffffffff80002005:	8d 51 30             	lea    0x30(%rcx),%edx
ffffffff80002008:	8d 79 57             	lea    0x57(%rcx),%edi
ffffffff8000200b:	80 f9 0a             	cmp    $0xa,%cl
ffffffff8000200e:	0f b6 ca             	movzbl %dl,%ecx
ffffffff80002011:	40 0f b6 d7          	movzbl %dil,%edx
ffffffff80002015:	0f 42 d1             	cmovb  %ecx,%edx
ffffffff80002018:	88 54 34 40          	mov    %dl,0x40(%rsp,%rsi,1)
ffffffff8000201c:	48 c1 e8 04          	shr    $0x4,%rax
ffffffff80002020:	48 83 c6 ff          	add    $0xffffffffffffffff,%rsi
ffffffff80002024:	48 83 fb 0f          	cmp    $0xf,%rbx
ffffffff80002028:	48 89 c3             	mov    %rax,%rbx
ffffffff8000202b:	77 d3                	ja     ffffffff80002000 <main.main+0x12d0>
ffffffff8000202d:	48 8d 3c 34          	lea    (%rsp,%rsi,1),%rdi
ffffffff80002031:	48 83 c7 41          	add    $0x41,%rdi
ffffffff80002035:	48 f7 de             	neg    %rsi
ffffffff80002038:	48 8d 15 c1 6a 01 00 	lea    0x16ac1(%rip),%rdx        # ffffffff80018b00 <__anon_5249+0x9>
ffffffff8000203f:	48 8d 0d 2a 90 01 00 	lea    0x1902a(%rip),%rcx        # ffffffff8001b070 <x64.tss.tss_iopb+0x70>
ffffffff80002046:	e8 35 19 00 00       	call   ffffffff80003980 <fmt.formatBuf__anon_2525>
ffffffff8000204b:	66 85 c0             	test   %ax,%ax
ffffffff8000204e:	0f 85 03 0b 00 00    	jne    ffffffff80002b57 <main.main+0x1e27>
ffffffff80002054:	66 ba f8 03          	mov    $0x3f8,%dx
ffffffff80002058:	b0 0a                	mov    $0xa,%al
ffffffff8000205a:	ee                   	out    %al,(%dx)
ffffffff8000205b:	48 8b 1d 9e af 01 00 	mov    0x1af9e(%rip),%rbx        # ffffffff8001d000 <main.kernel_rsp>
ffffffff80002062:	48 89 1d 9b 8f 01 00 	mov    %rbx,0x18f9b(%rip)        # ffffffff8001b004 <x64.tss.tss_iopb+0x4>
ffffffff80002069:	66 c7 05 f4 8f 01 00 	movw   $0x68,0x18ff4(%rip)        # ffffffff8001b066 <x64.tss.tss_iopb+0x66>
ffffffff80002070:	68 00 
ffffffff80002072:	44 8b 35 87 8f 01 00 	mov    0x18f87(%rip),%r14d        # ffffffff8001b000 <x64.tss.tss_iopb>
ffffffff80002079:	48 8b 2d 8c 8f 01 00 	mov    0x18f8c(%rip),%rbp        # ffffffff8001b00c <x64.tss.tss_iopb+0xc>
ffffffff80002080:	4c 8b 2d 8d 8f 01 00 	mov    0x18f8d(%rip),%r13        # ffffffff8001b014 <x64.tss.tss_iopb+0x14>
ffffffff80002087:	48 8b 05 8e 8f 01 00 	mov    0x18f8e(%rip),%rax        # ffffffff8001b01c <x64.tss.tss_iopb+0x1c>
ffffffff8000208e:	48 89 44 24 68       	mov    %rax,0x68(%rsp)
ffffffff80002093:	48 8b 05 8a 8f 01 00 	mov    0x18f8a(%rip),%rax        # ffffffff8001b024 <x64.tss.tss_iopb+0x24>
ffffffff8000209a:	48 89 84 24 98 00 00 	mov    %rax,0x98(%rsp)
ffffffff800020a1:	00 
ffffffff800020a2:	48 8b 05 83 8f 01 00 	mov    0x18f83(%rip),%rax        # ffffffff8001b02c <x64.tss.tss_iopb+0x2c>
ffffffff800020a9:	48 89 84 24 90 00 00 	mov    %rax,0x90(%rsp)
ffffffff800020b0:	00 
ffffffff800020b1:	48 8b 05 7c 8f 01 00 	mov    0x18f7c(%rip),%rax        # ffffffff8001b034 <x64.tss.tss_iopb+0x34>
ffffffff800020b8:	48 89 84 24 88 00 00 	mov    %rax,0x88(%rsp)
ffffffff800020bf:	00 
ffffffff800020c0:	48 8b 05 75 8f 01 00 	mov    0x18f75(%rip),%rax        # ffffffff8001b03c <x64.tss.tss_iopb+0x3c>
ffffffff800020c7:	48 89 84 24 80 00 00 	mov    %rax,0x80(%rsp)
ffffffff800020ce:	00 
ffffffff800020cf:	48 8b 05 6e 8f 01 00 	mov    0x18f6e(%rip),%rax        # ffffffff8001b044 <x64.tss.tss_iopb+0x44>
ffffffff800020d6:	48 89 84 24 b8 00 00 	mov    %rax,0xb8(%rsp)
ffffffff800020dd:	00 
ffffffff800020de:	48 8b 05 67 8f 01 00 	mov    0x18f67(%rip),%rax        # ffffffff8001b04c <x64.tss.tss_iopb+0x4c>
ffffffff800020e5:	48 89 84 24 b0 00 00 	mov    %rax,0xb0(%rsp)
ffffffff800020ec:	00 
ffffffff800020ed:	48 8b 05 60 8f 01 00 	mov    0x18f60(%rip),%rax        # ffffffff8001b054 <x64.tss.tss_iopb+0x54>
ffffffff800020f4:	48 89 84 24 a0 00 00 	mov    %rax,0xa0(%rsp)
ffffffff800020fb:	00 
ffffffff800020fc:	48 8b 05 59 8f 01 00 	mov    0x18f59(%rip),%rax        # ffffffff8001b05c <x64.tss.tss_iopb+0x5c>
ffffffff80002103:	48 89 84 24 a8 00 00 	mov    %rax,0xa8(%rsp)
ffffffff8000210a:	00 
ffffffff8000210b:	44 0f b7 25 51 8f 01 	movzwl 0x18f51(%rip),%r12d        # ffffffff8001b064 <x64.tss.tss_iopb+0x64>
ffffffff80002112:	00 
ffffffff80002113:	44 0f b6 3d 4d 8f 01 	movzbl 0x18f4d(%rip),%r15d        # ffffffff8001b068 <x64.tss.tss_iopb+0x68>
ffffffff8000211a:	00 
ffffffff8000211b:	48 8d 05 b0 6a 01 00 	lea    0x16ab0(%rip),%rax        # ffffffff80018bd2 <__anon_3536>
ffffffff80002122:	48 89 44 24 48       	mov    %rax,0x48(%rsp)
ffffffff80002127:	48 c7 44 24 50 04 00 	movq   $0x4,0x50(%rsp)
ffffffff8000212e:	00 00 
ffffffff80002130:	48 8d 3d 39 8f 01 00 	lea    0x18f39(%rip),%rdi        # ffffffff8001b070 <x64.tss.tss_iopb+0x70>
ffffffff80002137:	48 8d 74 24 48       	lea    0x48(%rsp),%rsi
ffffffff8000213c:	e8 8f 13 00 00       	call   ffffffff800034d0 <io.Writer.print__anon_2200>
ffffffff80002141:	66 85 c0             	test   %ax,%ax
ffffffff80002144:	0f 85 0d 0a 00 00    	jne    ffffffff80002b57 <main.main+0x1e27>
ffffffff8000214a:	66 ba f8 03          	mov    $0x3f8,%dx
ffffffff8000214e:	b0 74                	mov    $0x74,%al
ffffffff80002150:	ee                   	out    %al,(%dx)
ffffffff80002151:	b0 73                	mov    $0x73,%al
ffffffff80002153:	ee                   	out    %al,(%dx)
ffffffff80002154:	b0 73                	mov    $0x73,%al
ffffffff80002156:	ee                   	out    %al,(%dx)
ffffffff80002157:	b0 3a                	mov    $0x3a,%al
ffffffff80002159:	ee                   	out    %al,(%dx)
ffffffff8000215a:	b0 20                	mov    $0x20,%al
ffffffff8000215c:	ee                   	out    %al,(%dx)
ffffffff8000215d:	b0 78                	mov    $0x78,%al
ffffffff8000215f:	ee                   	out    %al,(%dx)
ffffffff80002160:	b0 36                	mov    $0x36,%al
ffffffff80002162:	ee                   	out    %al,(%dx)
ffffffff80002163:	b0 34                	mov    $0x34,%al
ffffffff80002165:	ee                   	out    %al,(%dx)
ffffffff80002166:	b0 2e                	mov    $0x2e,%al
ffffffff80002168:	ee                   	out    %al,(%dx)
ffffffff80002169:	b0 74                	mov    $0x74,%al
ffffffff8000216b:	ee                   	out    %al,(%dx)
ffffffff8000216c:	b0 73                	mov    $0x73,%al
ffffffff8000216e:	ee                   	out    %al,(%dx)
ffffffff8000216f:	b0 73                	mov    $0x73,%al
ffffffff80002171:	ee                   	out    %al,(%dx)
ffffffff80002172:	b0 2e                	mov    $0x2e,%al
ffffffff80002174:	ee                   	out    %al,(%dx)
ffffffff80002175:	b0 54                	mov    $0x54,%al
ffffffff80002177:	ee                   	out    %al,(%dx)
ffffffff80002178:	b0 73                	mov    $0x73,%al
ffffffff8000217a:	ee                   	out    %al,(%dx)
ffffffff8000217b:	b0 73                	mov    $0x73,%al
ffffffff8000217d:	ee                   	out    %al,(%dx)
ffffffff8000217e:	b0 49                	mov    $0x49,%al
ffffffff80002180:	ee                   	out    %al,(%dx)
ffffffff80002181:	b0 6f                	mov    $0x6f,%al
ffffffff80002183:	ee                   	out    %al,(%dx)
ffffffff80002184:	b0 70                	mov    $0x70,%al
ffffffff80002186:	ee                   	out    %al,(%dx)
ffffffff80002187:	b0 62                	mov    $0x62,%al
ffffffff80002189:	ee                   	out    %al,(%dx)
ffffffff8000218a:	b0 7b                	mov    $0x7b,%al
ffffffff8000218c:	ee                   	out    %al,(%dx)
ffffffff8000218d:	b0 20                	mov    $0x20,%al
ffffffff8000218f:	ee                   	out    %al,(%dx)
ffffffff80002190:	b0 2e                	mov    $0x2e,%al
ffffffff80002192:	ee                   	out    %al,(%dx)
ffffffff80002193:	b0 74                	mov    $0x74,%al
ffffffff80002195:	ee                   	out    %al,(%dx)
ffffffff80002196:	b0 73                	mov    $0x73,%al
ffffffff80002198:	ee                   	out    %al,(%dx)
ffffffff80002199:	b0 73                	mov    $0x73,%al
ffffffff8000219b:	ee                   	out    %al,(%dx)
ffffffff8000219c:	b0 20                	mov    $0x20,%al
ffffffff8000219e:	ee                   	out    %al,(%dx)
ffffffff8000219f:	b0 3d                	mov    $0x3d,%al
ffffffff800021a1:	ee                   	out    %al,(%dx)
ffffffff800021a2:	b0 20                	mov    $0x20,%al
ffffffff800021a4:	ee                   	out    %al,(%dx)
ffffffff800021a5:	b0 78                	mov    $0x78,%al
ffffffff800021a7:	ee                   	out    %al,(%dx)
ffffffff800021a8:	b0 36                	mov    $0x36,%al
ffffffff800021aa:	ee                   	out    %al,(%dx)
ffffffff800021ab:	b0 34                	mov    $0x34,%al
ffffffff800021ad:	ee                   	out    %al,(%dx)
ffffffff800021ae:	b0 2e                	mov    $0x2e,%al
ffffffff800021b0:	ee                   	out    %al,(%dx)
ffffffff800021b1:	b0 74                	mov    $0x74,%al
ffffffff800021b3:	ee                   	out    %al,(%dx)
ffffffff800021b4:	b0 73                	mov    $0x73,%al
ffffffff800021b6:	ee                   	out    %al,(%dx)
ffffffff800021b7:	b0 73                	mov    $0x73,%al
ffffffff800021b9:	ee                   	out    %al,(%dx)
ffffffff800021ba:	b0 2e                	mov    $0x2e,%al
ffffffff800021bc:	ee                   	out    %al,(%dx)
ffffffff800021bd:	b0 54                	mov    $0x54,%al
ffffffff800021bf:	ee                   	out    %al,(%dx)
ffffffff800021c0:	b0 73                	mov    $0x73,%al
ffffffff800021c2:	ee                   	out    %al,(%dx)
ffffffff800021c3:	b0 73                	mov    $0x73,%al
ffffffff800021c5:	ee                   	out    %al,(%dx)
ffffffff800021c6:	b0 7b                	mov    $0x7b,%al
ffffffff800021c8:	ee                   	out    %al,(%dx)
ffffffff800021c9:	b0 20                	mov    $0x20,%al
ffffffff800021cb:	ee                   	out    %al,(%dx)
ffffffff800021cc:	b0 2e                	mov    $0x2e,%al
ffffffff800021ce:	ee                   	out    %al,(%dx)
ffffffff800021cf:	b0 5f                	mov    $0x5f,%al
ffffffff800021d1:	ee                   	out    %al,(%dx)
ffffffff800021d2:	b0 31                	mov    $0x31,%al
ffffffff800021d4:	ee                   	out    %al,(%dx)
ffffffff800021d5:	b0 20                	mov    $0x20,%al
ffffffff800021d7:	ee                   	out    %al,(%dx)
ffffffff800021d8:	b0 3d                	mov    $0x3d,%al
ffffffff800021da:	ee                   	out    %al,(%dx)
ffffffff800021db:	b0 20                	mov    $0x20,%al
ffffffff800021dd:	ee                   	out    %al,(%dx)
ffffffff800021de:	48 b8 aa aa aa aa aa 	movabs $0xaaaaaaaaaaaaaaaa,%rax
ffffffff800021e5:	aa aa aa 
ffffffff800021e8:	48 89 44 24 18       	mov    %rax,0x18(%rsp)
ffffffff800021ed:	48 89 44 24 10       	mov    %rax,0x10(%rsp)
ffffffff800021f2:	48 89 44 24 08       	mov    %rax,0x8(%rsp)
ffffffff800021f7:	48 89 04 24          	mov    %rax,(%rsp)
ffffffff800021fb:	c6 44 24 20 aa       	movb   $0xaa,0x20(%rsp)
ffffffff80002200:	ba 21 00 00 00       	mov    $0x21,%edx
ffffffff80002205:	41 83 fe 64          	cmp    $0x64,%r14d
ffffffff80002209:	0f 82 cc 00 00 00    	jb     ffffffff800022db <main.main+0x15ab>
ffffffff8000220f:	44 89 f0             	mov    %r14d,%eax
ffffffff80002212:	48 69 f0 1f 85 eb 51 	imul   $0x51eb851f,%rax,%rsi
ffffffff80002219:	48 c1 ee 25          	shr    $0x25,%rsi
ffffffff8000221d:	6b ce 64             	imul   $0x64,%esi,%ecx
ffffffff80002220:	44 89 f2             	mov    %r14d,%edx
ffffffff80002223:	29 ca                	sub    %ecx,%edx
ffffffff80002225:	48 8d 0d 21 6a 01 00 	lea    0x16a21(%rip),%rcx        # ffffffff80018c4d <__anon_6068>
ffffffff8000222c:	0f b7 14 51          	movzwl (%rcx,%rdx,2),%edx
ffffffff80002230:	66 89 54 24 1f       	mov    %dx,0x1f(%rsp)
ffffffff80002235:	ba 1f 00 00 00       	mov    $0x1f,%edx
ffffffff8000223a:	41 81 fe 0f 27 00 00 	cmp    $0x270f,%r14d
ffffffff80002241:	0f 86 a9 00 00 00    	jbe    ffffffff800022f0 <main.main+0x15c0>
ffffffff80002247:	89 f2                	mov    %esi,%edx
ffffffff80002249:	48 69 d2 29 5c 8f 02 	imul   $0x28f5c29,%rdx,%rdx
ffffffff80002250:	48 c1 ea 20          	shr    $0x20,%rdx
ffffffff80002254:	6b d2 64             	imul   $0x64,%edx,%edx
ffffffff80002257:	29 d6                	sub    %edx,%esi
ffffffff80002259:	0f b7 14 71          	movzwl (%rcx,%rsi,2),%edx
ffffffff8000225d:	66 89 54 24 1d       	mov    %dx,0x1d(%rsp)
ffffffff80002262:	be 59 17 b7 d1       	mov    $0xd1b71759,%esi
ffffffff80002267:	48 0f af f0          	imul   %rax,%rsi
ffffffff8000226b:	48 c1 ee 2d          	shr    $0x2d,%rsi
ffffffff8000226f:	ba 1d 00 00 00       	mov    $0x1d,%edx
ffffffff80002274:	41 81 fe 40 42 0f 00 	cmp    $0xf4240,%r14d
ffffffff8000227b:	72 73                	jb     ffffffff800022f0 <main.main+0x15c0>
ffffffff8000227d:	89 f2                	mov    %esi,%edx
ffffffff8000227f:	48 69 d2 29 5c 8f 02 	imul   $0x28f5c29,%rdx,%rdx
ffffffff80002286:	48 c1 ea 20          	shr    $0x20,%rdx
ffffffff8000228a:	6b d2 64             	imul   $0x64,%edx,%edx
ffffffff8000228d:	29 d6                	sub    %edx,%esi
ffffffff8000228f:	0f b7 14 71          	movzwl (%rcx,%rsi,2),%edx
ffffffff80002293:	66 89 54 24 1b       	mov    %dx,0x1b(%rsp)
ffffffff80002298:	48 69 f0 83 de 1b 43 	imul   $0x431bde83,%rax,%rsi
ffffffff8000229f:	48 c1 ee 32          	shr    $0x32,%rsi
ffffffff800022a3:	ba 1b 00 00 00       	mov    $0x1b,%edx
ffffffff800022a8:	41 81 fe 00 e1 f5 05 	cmp    $0x5f5e100,%r14d
ffffffff800022af:	72 3f                	jb     ffffffff800022f0 <main.main+0x15c0>
ffffffff800022b1:	69 d6 7b 14 00 00    	imul   $0x147b,%esi,%edx
ffffffff800022b7:	c1 ea 13             	shr    $0x13,%edx
ffffffff800022ba:	6b d2 64             	imul   $0x64,%edx,%edx
ffffffff800022bd:	29 d6                	sub    %edx,%esi
ffffffff800022bf:	0f b7 d6             	movzwl %si,%edx
ffffffff800022c2:	0f b7 0c 51          	movzwl (%rcx,%rdx,2),%ecx
ffffffff800022c6:	66 89 4c 24 19       	mov    %cx,0x19(%rsp)
ffffffff800022cb:	4c 69 f0 89 3b e6 55 	imul   $0x55e63b89,%rax,%r14
ffffffff800022d2:	49 c1 ee 39          	shr    $0x39,%r14
ffffffff800022d6:	ba 19 00 00 00       	mov    $0x19,%edx
ffffffff800022db:	41 83 fe 0a          	cmp    $0xa,%r14d
ffffffff800022df:	73 18                	jae    ffffffff800022f9 <main.main+0x15c9>
ffffffff800022e1:	41 80 ce 30          	or     $0x30,%r14b
ffffffff800022e5:	44 88 74 14 ff       	mov    %r14b,-0x1(%rsp,%rdx,1)
ffffffff800022ea:	48 83 c2 ff          	add    $0xffffffffffffffff,%rdx
ffffffff800022ee:	eb 20                	jmp    ffffffff80002310 <main.main+0x15e0>
ffffffff800022f0:	41 89 f6             	mov    %esi,%r14d
ffffffff800022f3:	41 83 fe 0a          	cmp    $0xa,%r14d
ffffffff800022f7:	72 e8                	jb     ffffffff800022e1 <main.main+0x15b1>
ffffffff800022f9:	44 89 f0             	mov    %r14d,%eax
ffffffff800022fc:	48 8d 0d 4a 69 01 00 	lea    0x1694a(%rip),%rcx        # ffffffff80018c4d <__anon_6068>
ffffffff80002303:	0f b7 04 41          	movzwl (%rcx,%rax,2),%eax
ffffffff80002307:	66 89 44 14 fe       	mov    %ax,-0x2(%rsp,%rdx,1)
ffffffff8000230c:	48 83 c2 fe          	add    $0xfffffffffffffffe,%rdx
ffffffff80002310:	be 21 00 00 00       	mov    $0x21,%esi
ffffffff80002315:	48 29 d6             	sub    %rdx,%rsi
ffffffff80002318:	48 8d 3c 14          	lea    (%rsp,%rdx,1),%rdi
ffffffff8000231c:	48 8d 15 dd 67 01 00 	lea    0x167dd(%rip),%rdx        # ffffffff80018b00 <__anon_5249+0x9>
ffffffff80002323:	48 8d 0d 46 8d 01 00 	lea    0x18d46(%rip),%rcx        # ffffffff8001b070 <x64.tss.tss_iopb+0x70>
ffffffff8000232a:	e8 51 16 00 00       	call   ffffffff80003980 <fmt.formatBuf__anon_2525>
ffffffff8000232f:	66 85 c0             	test   %ax,%ax
ffffffff80002332:	0f 85 1f 08 00 00    	jne    ffffffff80002b57 <main.main+0x1e27>
ffffffff80002338:	66 ba f8 03          	mov    $0x3f8,%dx
ffffffff8000233c:	b0 2c                	mov    $0x2c,%al
ffffffff8000233e:	ee                   	out    %al,(%dx)
ffffffff8000233f:	b0 20                	mov    $0x20,%al
ffffffff80002341:	ee                   	out    %al,(%dx)
ffffffff80002342:	b0 2e                	mov    $0x2e,%al
ffffffff80002344:	ee                   	out    %al,(%dx)
ffffffff80002345:	b0 72                	mov    $0x72,%al
ffffffff80002347:	ee                   	out    %al,(%dx)
ffffffff80002348:	b0 73                	mov    $0x73,%al
ffffffff8000234a:	ee                   	out    %al,(%dx)
ffffffff8000234b:	b0 70                	mov    $0x70,%al
ffffffff8000234d:	ee                   	out    %al,(%dx)
ffffffff8000234e:	b0 20                	mov    $0x20,%al
ffffffff80002350:	ee                   	out    %al,(%dx)
ffffffff80002351:	b0 3d                	mov    $0x3d,%al
ffffffff80002353:	ee                   	out    %al,(%dx)
ffffffff80002354:	b0 20                	mov    $0x20,%al
ffffffff80002356:	ee                   	out    %al,(%dx)
ffffffff80002357:	b0 7b                	mov    $0x7b,%al
ffffffff80002359:	ee                   	out    %al,(%dx)
ffffffff8000235a:	b0 20                	mov    $0x20,%al
ffffffff8000235c:	ee                   	out    %al,(%dx)
ffffffff8000235d:	48 8d 35 0c 8d 01 00 	lea    0x18d0c(%rip),%rsi        # ffffffff8001b070 <x64.tss.tss_iopb+0x70>
ffffffff80002364:	48 89 df             	mov    %rbx,%rdi
ffffffff80002367:	e8 74 22 00 00       	call   ffffffff800045e0 <fmt.formatType__anon_2576>
ffffffff8000236c:	66 85 c0             	test   %ax,%ax
ffffffff8000236f:	0f 85 e2 07 00 00    	jne    ffffffff80002b57 <main.main+0x1e27>
ffffffff80002375:	66 ba f8 03          	mov    $0x3f8,%dx
ffffffff80002379:	b0 2c                	mov    $0x2c,%al
ffffffff8000237b:	ee                   	out    %al,(%dx)
ffffffff8000237c:	b0 20                	mov    $0x20,%al
ffffffff8000237e:	ee                   	out    %al,(%dx)
ffffffff8000237f:	48 8d 35 ea 8c 01 00 	lea    0x18cea(%rip),%rsi        # ffffffff8001b070 <x64.tss.tss_iopb+0x70>
ffffffff80002386:	48 89 ef             	mov    %rbp,%rdi
ffffffff80002389:	e8 52 22 00 00       	call   ffffffff800045e0 <fmt.formatType__anon_2576>
ffffffff8000238e:	66 85 c0             	test   %ax,%ax
ffffffff80002391:	0f 85 c0 07 00 00    	jne    ffffffff80002b57 <main.main+0x1e27>
ffffffff80002397:	66 ba f8 03          	mov    $0x3f8,%dx
ffffffff8000239b:	b0 2c                	mov    $0x2c,%al
ffffffff8000239d:	ee                   	out    %al,(%dx)
ffffffff8000239e:	b0 20                	mov    $0x20,%al
ffffffff800023a0:	ee                   	out    %al,(%dx)
ffffffff800023a1:	48 8d 35 c8 8c 01 00 	lea    0x18cc8(%rip),%rsi        # ffffffff8001b070 <x64.tss.tss_iopb+0x70>
ffffffff800023a8:	4c 89 ef             	mov    %r13,%rdi
ffffffff800023ab:	e8 30 22 00 00       	call   ffffffff800045e0 <fmt.formatType__anon_2576>
ffffffff800023b0:	66 85 c0             	test   %ax,%ax
ffffffff800023b3:	0f 85 9e 07 00 00    	jne    ffffffff80002b57 <main.main+0x1e27>
ffffffff800023b9:	66 ba f8 03          	mov    $0x3f8,%dx
ffffffff800023bd:	b0 20                	mov    $0x20,%al
ffffffff800023bf:	ee                   	out    %al,(%dx)
ffffffff800023c0:	b0 7d                	mov    $0x7d,%al
ffffffff800023c2:	ee                   	out    %al,(%dx)
ffffffff800023c3:	b0 2c                	mov    $0x2c,%al
ffffffff800023c5:	ee                   	out    %al,(%dx)
ffffffff800023c6:	b0 20                	mov    $0x20,%al
ffffffff800023c8:	ee                   	out    %al,(%dx)
ffffffff800023c9:	b0 2e                	mov    $0x2e,%al
ffffffff800023cb:	ee                   	out    %al,(%dx)
ffffffff800023cc:	b0 5f                	mov    $0x5f,%al
ffffffff800023ce:	ee                   	out    %al,(%dx)
ffffffff800023cf:	b0 32                	mov    $0x32,%al
ffffffff800023d1:	ee                   	out    %al,(%dx)
ffffffff800023d2:	b0 20                	mov    $0x20,%al
ffffffff800023d4:	ee                   	out    %al,(%dx)
ffffffff800023d5:	b0 3d                	mov    $0x3d,%al
ffffffff800023d7:	ee                   	out    %al,(%dx)
ffffffff800023d8:	b0 20                	mov    $0x20,%al
ffffffff800023da:	ee                   	out    %al,(%dx)
ffffffff800023db:	48 8d 35 8e 8c 01 00 	lea    0x18c8e(%rip),%rsi        # ffffffff8001b070 <x64.tss.tss_iopb+0x70>
ffffffff800023e2:	48 8b 7c 24 68       	mov    0x68(%rsp),%rdi
ffffffff800023e7:	e8 f4 21 00 00       	call   ffffffff800045e0 <fmt.formatType__anon_2576>
ffffffff800023ec:	66 85 c0             	test   %ax,%ax
ffffffff800023ef:	0f 85 62 07 00 00    	jne    ffffffff80002b57 <main.main+0x1e27>
ffffffff800023f5:	66 ba f8 03          	mov    $0x3f8,%dx
ffffffff800023f9:	b0 2c                	mov    $0x2c,%al
ffffffff800023fb:	ee                   	out    %al,(%dx)
ffffffff800023fc:	b0 20                	mov    $0x20,%al
ffffffff800023fe:	ee                   	out    %al,(%dx)
ffffffff800023ff:	b0 2e                	mov    $0x2e,%al
ffffffff80002401:	ee                   	out    %al,(%dx)
ffffffff80002402:	b0 69                	mov    $0x69,%al
ffffffff80002404:	ee                   	out    %al,(%dx)
ffffffff80002405:	b0 73                	mov    $0x73,%al
ffffffff80002407:	ee                   	out    %al,(%dx)
ffffffff80002408:	b0 74                	mov    $0x74,%al
ffffffff8000240a:	ee                   	out    %al,(%dx)
ffffffff8000240b:	b0 20                	mov    $0x20,%al
ffffffff8000240d:	ee                   	out    %al,(%dx)
ffffffff8000240e:	b0 3d                	mov    $0x3d,%al
ffffffff80002410:	ee                   	out    %al,(%dx)
ffffffff80002411:	b0 20                	mov    $0x20,%al
ffffffff80002413:	ee                   	out    %al,(%dx)
ffffffff80002414:	b0 7b                	mov    $0x7b,%al
ffffffff80002416:	ee                   	out    %al,(%dx)
ffffffff80002417:	b0 20                	mov    $0x20,%al
ffffffff80002419:	ee                   	out    %al,(%dx)
ffffffff8000241a:	48 8d 35 4f 8c 01 00 	lea    0x18c4f(%rip),%rsi        # ffffffff8001b070 <x64.tss.tss_iopb+0x70>
ffffffff80002421:	48 8b bc 24 98 00 00 	mov    0x98(%rsp),%rdi
ffffffff80002428:	00 
ffffffff80002429:	e8 b2 21 00 00       	call   ffffffff800045e0 <fmt.formatType__anon_2576>
ffffffff8000242e:	66 85 c0             	test   %ax,%ax
ffffffff80002431:	0f 85 20 07 00 00    	jne    ffffffff80002b57 <main.main+0x1e27>
ffffffff80002437:	66 ba f8 03          	mov    $0x3f8,%dx
ffffffff8000243b:	b0 2c                	mov    $0x2c,%al
ffffffff8000243d:	ee                   	out    %al,(%dx)
ffffffff8000243e:	b0 20                	mov    $0x20,%al
ffffffff80002440:	ee                   	out    %al,(%dx)
ffffffff80002441:	48 8d 35 28 8c 01 00 	lea    0x18c28(%rip),%rsi        # ffffffff8001b070 <x64.tss.tss_iopb+0x70>
ffffffff80002448:	48 8b bc 24 90 00 00 	mov    0x90(%rsp),%rdi
ffffffff8000244f:	00 
ffffffff80002450:	e8 8b 21 00 00       	call   ffffffff800045e0 <fmt.formatType__anon_2576>
ffffffff80002455:	66 85 c0             	test   %ax,%ax
ffffffff80002458:	0f 85 f9 06 00 00    	jne    ffffffff80002b57 <main.main+0x1e27>
ffffffff8000245e:	66 ba f8 03          	mov    $0x3f8,%dx
ffffffff80002462:	b0 2c                	mov    $0x2c,%al
ffffffff80002464:	ee                   	out    %al,(%dx)
ffffffff80002465:	b0 20                	mov    $0x20,%al
ffffffff80002467:	ee                   	out    %al,(%dx)
ffffffff80002468:	48 8d 35 01 8c 01 00 	lea    0x18c01(%rip),%rsi        # ffffffff8001b070 <x64.tss.tss_iopb+0x70>
ffffffff8000246f:	48 8b bc 24 88 00 00 	mov    0x88(%rsp),%rdi
ffffffff80002476:	00 
ffffffff80002477:	e8 64 21 00 00       	call   ffffffff800045e0 <fmt.formatType__anon_2576>
ffffffff8000247c:	66 85 c0             	test   %ax,%ax
ffffffff8000247f:	0f 85 d2 06 00 00    	jne    ffffffff80002b57 <main.main+0x1e27>
ffffffff80002485:	66 ba f8 03          	mov    $0x3f8,%dx
ffffffff80002489:	b0 2c                	mov    $0x2c,%al
ffffffff8000248b:	ee                   	out    %al,(%dx)
ffffffff8000248c:	b0 20                	mov    $0x20,%al
ffffffff8000248e:	ee                   	out    %al,(%dx)
ffffffff8000248f:	48 8d 35 da 8b 01 00 	lea    0x18bda(%rip),%rsi        # ffffffff8001b070 <x64.tss.tss_iopb+0x70>
ffffffff80002496:	48 8b bc 24 80 00 00 	mov    0x80(%rsp),%rdi
ffffffff8000249d:	00 
ffffffff8000249e:	e8 3d 21 00 00       	call   ffffffff800045e0 <fmt.formatType__anon_2576>
ffffffff800024a3:	66 85 c0             	test   %ax,%ax
ffffffff800024a6:	0f 85 ab 06 00 00    	jne    ffffffff80002b57 <main.main+0x1e27>
ffffffff800024ac:	66 ba f8 03          	mov    $0x3f8,%dx
ffffffff800024b0:	b0 2c                	mov    $0x2c,%al
ffffffff800024b2:	ee                   	out    %al,(%dx)
ffffffff800024b3:	b0 20                	mov    $0x20,%al
ffffffff800024b5:	ee                   	out    %al,(%dx)
ffffffff800024b6:	48 8d 35 b3 8b 01 00 	lea    0x18bb3(%rip),%rsi        # ffffffff8001b070 <x64.tss.tss_iopb+0x70>
ffffffff800024bd:	48 8b bc 24 b8 00 00 	mov    0xb8(%rsp),%rdi
ffffffff800024c4:	00 
ffffffff800024c5:	e8 16 21 00 00       	call   ffffffff800045e0 <fmt.formatType__anon_2576>
ffffffff800024ca:	66 85 c0             	test   %ax,%ax
ffffffff800024cd:	0f 85 84 06 00 00    	jne    ffffffff80002b57 <main.main+0x1e27>
ffffffff800024d3:	66 ba f8 03          	mov    $0x3f8,%dx
ffffffff800024d7:	b0 2c                	mov    $0x2c,%al
ffffffff800024d9:	ee                   	out    %al,(%dx)
ffffffff800024da:	b0 20                	mov    $0x20,%al
ffffffff800024dc:	ee                   	out    %al,(%dx)
ffffffff800024dd:	48 8d 35 8c 8b 01 00 	lea    0x18b8c(%rip),%rsi        # ffffffff8001b070 <x64.tss.tss_iopb+0x70>
ffffffff800024e4:	48 8b bc 24 b0 00 00 	mov    0xb0(%rsp),%rdi
ffffffff800024eb:	00 
ffffffff800024ec:	e8 ef 20 00 00       	call   ffffffff800045e0 <fmt.formatType__anon_2576>
ffffffff800024f1:	66 85 c0             	test   %ax,%ax
ffffffff800024f4:	0f 85 5d 06 00 00    	jne    ffffffff80002b57 <main.main+0x1e27>
ffffffff800024fa:	66 ba f8 03          	mov    $0x3f8,%dx
ffffffff800024fe:	b0 2c                	mov    $0x2c,%al
ffffffff80002500:	ee                   	out    %al,(%dx)
ffffffff80002501:	b0 20                	mov    $0x20,%al
ffffffff80002503:	ee                   	out    %al,(%dx)
ffffffff80002504:	48 8d 35 65 8b 01 00 	lea    0x18b65(%rip),%rsi        # ffffffff8001b070 <x64.tss.tss_iopb+0x70>
ffffffff8000250b:	48 8b bc 24 a0 00 00 	mov    0xa0(%rsp),%rdi
ffffffff80002512:	00 
ffffffff80002513:	e8 c8 20 00 00       	call   ffffffff800045e0 <fmt.formatType__anon_2576>
ffffffff80002518:	66 85 c0             	test   %ax,%ax
ffffffff8000251b:	0f 85 36 06 00 00    	jne    ffffffff80002b57 <main.main+0x1e27>
ffffffff80002521:	66 ba f8 03          	mov    $0x3f8,%dx
ffffffff80002525:	b0 20                	mov    $0x20,%al
ffffffff80002527:	ee                   	out    %al,(%dx)
ffffffff80002528:	b0 7d                	mov    $0x7d,%al
ffffffff8000252a:	ee                   	out    %al,(%dx)
ffffffff8000252b:	b0 2c                	mov    $0x2c,%al
ffffffff8000252d:	ee                   	out    %al,(%dx)
ffffffff8000252e:	b0 20                	mov    $0x20,%al
ffffffff80002530:	ee                   	out    %al,(%dx)
ffffffff80002531:	b0 2e                	mov    $0x2e,%al
ffffffff80002533:	ee                   	out    %al,(%dx)
ffffffff80002534:	b0 5f                	mov    $0x5f,%al
ffffffff80002536:	ee                   	out    %al,(%dx)
ffffffff80002537:	b0 33                	mov    $0x33,%al
ffffffff80002539:	ee                   	out    %al,(%dx)
ffffffff8000253a:	b0 20                	mov    $0x20,%al
ffffffff8000253c:	ee                   	out    %al,(%dx)
ffffffff8000253d:	b0 3d                	mov    $0x3d,%al
ffffffff8000253f:	ee                   	out    %al,(%dx)
ffffffff80002540:	b0 20                	mov    $0x20,%al
ffffffff80002542:	ee                   	out    %al,(%dx)
ffffffff80002543:	48 8d 35 26 8b 01 00 	lea    0x18b26(%rip),%rsi        # ffffffff8001b070 <x64.tss.tss_iopb+0x70>
ffffffff8000254a:	48 8b bc 24 a8 00 00 	mov    0xa8(%rsp),%rdi
ffffffff80002551:	00 
ffffffff80002552:	e8 89 20 00 00       	call   ffffffff800045e0 <fmt.formatType__anon_2576>
ffffffff80002557:	66 85 c0             	test   %ax,%ax
ffffffff8000255a:	0f 85 f7 05 00 00    	jne    ffffffff80002b57 <main.main+0x1e27>
ffffffff80002560:	66 ba f8 03          	mov    $0x3f8,%dx
ffffffff80002564:	b0 2c                	mov    $0x2c,%al
ffffffff80002566:	ee                   	out    %al,(%dx)
ffffffff80002567:	b0 20                	mov    $0x20,%al
ffffffff80002569:	ee                   	out    %al,(%dx)
ffffffff8000256a:	b0 2e                	mov    $0x2e,%al
ffffffff8000256c:	ee                   	out    %al,(%dx)
ffffffff8000256d:	b0 5f                	mov    $0x5f,%al
ffffffff8000256f:	ee                   	out    %al,(%dx)
ffffffff80002570:	b0 34                	mov    $0x34,%al
ffffffff80002572:	ee                   	out    %al,(%dx)
ffffffff80002573:	b0 20                	mov    $0x20,%al
ffffffff80002575:	ee                   	out    %al,(%dx)
ffffffff80002576:	b0 3d                	mov    $0x3d,%al
ffffffff80002578:	ee                   	out    %al,(%dx)
ffffffff80002579:	b0 20                	mov    $0x20,%al
ffffffff8000257b:	ee                   	out    %al,(%dx)
ffffffff8000257c:	48 b8 aa aa aa aa aa 	movabs $0xaaaaaaaaaaaaaaaa,%rax
ffffffff80002583:	aa aa aa 
ffffffff80002586:	48 89 44 24 08       	mov    %rax,0x8(%rsp)
ffffffff8000258b:	48 89 04 24          	mov    %rax,(%rsp)
ffffffff8000258f:	c6 44 24 10 aa       	movb   $0xaa,0x10(%rsp)
ffffffff80002594:	b8 11 00 00 00       	mov    $0x11,%eax
ffffffff80002599:	66 41 83 fc 64       	cmp    $0x64,%r12w
ffffffff8000259e:	72 6f                	jb     ffffffff8000260f <main.main+0x18df>
ffffffff800025a0:	41 0f b7 cc          	movzwl %r12w,%ecx
ffffffff800025a4:	89 c8                	mov    %ecx,%eax
ffffffff800025a6:	c1 e8 02             	shr    $0x2,%eax
ffffffff800025a9:	69 c0 7b 14 00 00    	imul   $0x147b,%eax,%eax
ffffffff800025af:	c1 e8 11             	shr    $0x11,%eax
ffffffff800025b2:	6b d0 64             	imul   $0x64,%eax,%edx
ffffffff800025b5:	41 29 d4             	sub    %edx,%r12d
ffffffff800025b8:	41 0f b7 f4          	movzwl %r12w,%esi
ffffffff800025bc:	48 8d 15 8a 66 01 00 	lea    0x1668a(%rip),%rdx        # ffffffff80018c4d <__anon_6068>
ffffffff800025c3:	0f b7 34 72          	movzwl (%rdx,%rsi,2),%esi
ffffffff800025c7:	66 89 74 24 0f       	mov    %si,0xf(%rsp)
ffffffff800025cc:	41 89 c4             	mov    %eax,%r12d
ffffffff800025cf:	b8 0f 00 00 00       	mov    $0xf,%eax
ffffffff800025d4:	81 f9 0f 27 00 00    	cmp    $0x270f,%ecx
ffffffff800025da:	76 33                	jbe    ffffffff8000260f <main.main+0x18df>
ffffffff800025dc:	41 0f b7 c4          	movzwl %r12w,%eax
ffffffff800025e0:	69 f0 90 02 00 00    	imul   $0x290,%eax,%esi
ffffffff800025e6:	c1 ee 10             	shr    $0x10,%esi
ffffffff800025e9:	6b f6 64             	imul   $0x64,%esi,%esi
ffffffff800025ec:	29 f0                	sub    %esi,%eax
ffffffff800025ee:	0f b7 c0             	movzwl %ax,%eax
ffffffff800025f1:	0f b7 04 42          	movzwl (%rdx,%rax,2),%eax
ffffffff800025f5:	66 89 44 24 0d       	mov    %ax,0xd(%rsp)
ffffffff800025fa:	c1 e9 04             	shr    $0x4,%ecx
ffffffff800025fd:	44 69 e1 47 03 00 00 	imul   $0x347,%ecx,%r12d
ffffffff80002604:	41 c1 ec 13          	shr    $0x13,%r12d
ffffffff80002608:	b8 0d 00 00 00       	mov    $0xd,%eax
ffffffff8000260d:	eb 07                	jmp    ffffffff80002616 <main.main+0x18e6>
ffffffff8000260f:	66 41 83 fc 0a       	cmp    $0xa,%r12w
ffffffff80002614:	73 0f                	jae    ffffffff80002625 <main.main+0x18f5>
ffffffff80002616:	41 80 cc 30          	or     $0x30,%r12b
ffffffff8000261a:	44 88 64 04 ff       	mov    %r12b,-0x1(%rsp,%rax,1)
ffffffff8000261f:	48 83 c0 ff          	add    $0xffffffffffffffff,%rax
ffffffff80002623:	eb 18                	jmp    ffffffff8000263d <main.main+0x190d>
ffffffff80002625:	41 0f b7 cc          	movzwl %r12w,%ecx
ffffffff80002629:	48 8d 15 1d 66 01 00 	lea    0x1661d(%rip),%rdx        # ffffffff80018c4d <__anon_6068>
ffffffff80002630:	0f b7 0c 4a          	movzwl (%rdx,%rcx,2),%ecx
ffffffff80002634:	66 89 4c 04 fe       	mov    %cx,-0x2(%rsp,%rax,1)
ffffffff80002639:	48 83 c0 fe          	add    $0xfffffffffffffffe,%rax
ffffffff8000263d:	be 11 00 00 00       	mov    $0x11,%esi
ffffffff80002642:	48 29 c6             	sub    %rax,%rsi
ffffffff80002645:	48 8d 3c 04          	lea    (%rsp,%rax,1),%rdi
ffffffff80002649:	48 8d 15 b0 64 01 00 	lea    0x164b0(%rip),%rdx        # ffffffff80018b00 <__anon_5249+0x9>
ffffffff80002650:	48 8d 0d 19 8a 01 00 	lea    0x18a19(%rip),%rcx        # ffffffff8001b070 <x64.tss.tss_iopb+0x70>
ffffffff80002657:	e8 24 13 00 00       	call   ffffffff80003980 <fmt.formatBuf__anon_2525>
ffffffff8000265c:	66 85 c0             	test   %ax,%ax
ffffffff8000265f:	0f 85 f2 04 00 00    	jne    ffffffff80002b57 <main.main+0x1e27>
ffffffff80002665:	66 ba f8 03          	mov    $0x3f8,%dx
ffffffff80002669:	b0 2c                	mov    $0x2c,%al
ffffffff8000266b:	ee                   	out    %al,(%dx)
ffffffff8000266c:	b0 20                	mov    $0x20,%al
ffffffff8000266e:	ee                   	out    %al,(%dx)
ffffffff8000266f:	b0 2e                	mov    $0x2e,%al
ffffffff80002671:	ee                   	out    %al,(%dx)
ffffffff80002672:	b0 69                	mov    $0x69,%al
ffffffff80002674:	ee                   	out    %al,(%dx)
ffffffff80002675:	b0 6f                	mov    $0x6f,%al
ffffffff80002677:	ee                   	out    %al,(%dx)
ffffffff80002678:	b0 70                	mov    $0x70,%al
ffffffff8000267a:	ee                   	out    %al,(%dx)
ffffffff8000267b:	b0 62                	mov    $0x62,%al
ffffffff8000267d:	ee                   	out    %al,(%dx)
ffffffff8000267e:	b0 20                	mov    $0x20,%al
ffffffff80002680:	ee                   	out    %al,(%dx)
ffffffff80002681:	b0 3d                	mov    $0x3d,%al
ffffffff80002683:	ee                   	out    %al,(%dx)
ffffffff80002684:	b0 20                	mov    $0x20,%al
ffffffff80002686:	ee                   	out    %al,(%dx)
ffffffff80002687:	48 b8 aa aa aa aa aa 	movabs $0xaaaaaaaaaaaaaaaa,%rax
ffffffff8000268e:	aa aa aa 
ffffffff80002691:	48 89 44 24 06       	mov    %rax,0x6(%rsp)
ffffffff80002696:	48 89 04 24          	mov    %rax,(%rsp)
ffffffff8000269a:	66 c7 44 24 0f 30 34 	movw   $0x3430,0xf(%rsp)
ffffffff800026a1:	48 8d 7c 24 0e       	lea    0xe(%rsp),%rdi
ffffffff800026a6:	c6 44 24 0e 31       	movb   $0x31,0xe(%rsp)
ffffffff800026ab:	48 8d 15 4e 64 01 00 	lea    0x1644e(%rip),%rdx        # ffffffff80018b00 <__anon_5249+0x9>
ffffffff800026b2:	48 8d 0d b7 89 01 00 	lea    0x189b7(%rip),%rcx        # ffffffff8001b070 <x64.tss.tss_iopb+0x70>
ffffffff800026b9:	be 03 00 00 00       	mov    $0x3,%esi
ffffffff800026be:	e8 bd 12 00 00       	call   ffffffff80003980 <fmt.formatBuf__anon_2525>
ffffffff800026c3:	66 85 c0             	test   %ax,%ax
ffffffff800026c6:	0f 85 8b 04 00 00    	jne    ffffffff80002b57 <main.main+0x1e27>
ffffffff800026cc:	41 0f b6 cf          	movzbl %r15b,%ecx
ffffffff800026d0:	66 ba f8 03          	mov    $0x3f8,%dx
ffffffff800026d4:	b0 20                	mov    $0x20,%al
ffffffff800026d6:	ee                   	out    %al,(%dx)
ffffffff800026d7:	b0 7d                	mov    $0x7d,%al
ffffffff800026d9:	ee                   	out    %al,(%dx)
ffffffff800026da:	b0 2c                	mov    $0x2c,%al
ffffffff800026dc:	ee                   	out    %al,(%dx)
ffffffff800026dd:	b0 20                	mov    $0x20,%al
ffffffff800026df:	ee                   	out    %al,(%dx)
ffffffff800026e0:	b0 2e                	mov    $0x2e,%al
ffffffff800026e2:	ee                   	out    %al,(%dx)
ffffffff800026e3:	b0 69                	mov    $0x69,%al
ffffffff800026e5:	ee                   	out    %al,(%dx)
ffffffff800026e6:	b0 6f                	mov    $0x6f,%al
ffffffff800026e8:	ee                   	out    %al,(%dx)
ffffffff800026e9:	b0 70                	mov    $0x70,%al
ffffffff800026eb:	ee                   	out    %al,(%dx)
ffffffff800026ec:	b0 62                	mov    $0x62,%al
ffffffff800026ee:	ee                   	out    %al,(%dx)
ffffffff800026ef:	b0 20                	mov    $0x20,%al
ffffffff800026f1:	ee                   	out    %al,(%dx)
ffffffff800026f2:	b0 3d                	mov    $0x3d,%al
ffffffff800026f4:	ee                   	out    %al,(%dx)
ffffffff800026f5:	b0 20                	mov    $0x20,%al
ffffffff800026f7:	ee                   	out    %al,(%dx)
ffffffff800026f8:	48 b8 aa aa aa aa aa 	movabs $0xaaaaaaaaaaaaaaaa,%rax
ffffffff800026ff:	aa aa aa 
ffffffff80002702:	48 89 04 24          	mov    %rax,(%rsp)
ffffffff80002706:	c6 44 24 08 aa       	movb   $0xaa,0x8(%rsp)
ffffffff8000270b:	80 f9 63             	cmp    $0x63,%cl
ffffffff8000270e:	76 2d                	jbe    ffffffff8000273d <main.main+0x1a0d>
ffffffff80002710:	8d 04 89             	lea    (%rcx,%rcx,4),%eax
ffffffff80002713:	8d 0c c1             	lea    (%rcx,%rax,8),%ecx
ffffffff80002716:	c1 e9 0c             	shr    $0xc,%ecx
ffffffff80002719:	6b c1 64             	imul   $0x64,%ecx,%eax
ffffffff8000271c:	41 28 c7             	sub    %al,%r15b
ffffffff8000271f:	41 0f b6 c7          	movzbl %r15b,%eax
ffffffff80002723:	48 8d 15 23 65 01 00 	lea    0x16523(%rip),%rdx        # ffffffff80018c4d <__anon_6068>
ffffffff8000272a:	0f b7 04 42          	movzwl (%rdx,%rax,2),%eax
ffffffff8000272e:	66 89 44 24 07       	mov    %ax,0x7(%rsp)
ffffffff80002733:	b8 06 00 00 00       	mov    $0x6,%eax
ffffffff80002738:	41 89 cf             	mov    %ecx,%r15d
ffffffff8000273b:	eb 0b                	jmp    ffffffff80002748 <main.main+0x1a18>
ffffffff8000273d:	b8 08 00 00 00       	mov    $0x8,%eax
ffffffff80002742:	41 80 ff 0a          	cmp    $0xa,%r15b
ffffffff80002746:	73 0a                	jae    ffffffff80002752 <main.main+0x1a22>
ffffffff80002748:	41 80 cf 30          	or     $0x30,%r15b
ffffffff8000274c:	44 88 3c 04          	mov    %r15b,(%rsp,%rax,1)
ffffffff80002750:	eb 15                	jmp    ffffffff80002767 <main.main+0x1a37>
ffffffff80002752:	48 8d 05 f4 64 01 00 	lea    0x164f4(%rip),%rax        # ffffffff80018c4d <__anon_6068>
ffffffff80002759:	0f b7 04 48          	movzwl (%rax,%rcx,2),%eax
ffffffff8000275d:	66 89 44 24 07       	mov    %ax,0x7(%rsp)
ffffffff80002762:	b8 07 00 00 00       	mov    $0x7,%eax
ffffffff80002767:	be 09 00 00 00       	mov    $0x9,%esi
ffffffff8000276c:	48 29 c6             	sub    %rax,%rsi
ffffffff8000276f:	48 8d 3c 04          	lea    (%rsp,%rax,1),%rdi
ffffffff80002773:	48 8d 15 86 63 01 00 	lea    0x16386(%rip),%rdx        # ffffffff80018b00 <__anon_5249+0x9>
ffffffff8000277a:	48 8d 0d ef 88 01 00 	lea    0x188ef(%rip),%rcx        # ffffffff8001b070 <x64.tss.tss_iopb+0x70>
ffffffff80002781:	e8 fa 11 00 00       	call   ffffffff80003980 <fmt.formatBuf__anon_2525>
ffffffff80002786:	66 85 c0             	test   %ax,%ax
ffffffff80002789:	0f 85 c8 03 00 00    	jne    ffffffff80002b57 <main.main+0x1e27>
ffffffff8000278f:	66 ba f8 03          	mov    $0x3f8,%dx
ffffffff80002793:	b0 20                	mov    $0x20,%al
ffffffff80002795:	ee                   	out    %al,(%dx)
ffffffff80002796:	b0 7d                	mov    $0x7d,%al
ffffffff80002798:	ee                   	out    %al,(%dx)
ffffffff80002799:	b0 0a                	mov    $0xa,%al
ffffffff8000279b:	ee                   	out    %al,(%dx)
ffffffff8000279c:	48 8d 05 2f 64 01 00 	lea    0x1642f(%rip),%rax        # ffffffff80018bd2 <__anon_3536>
ffffffff800027a3:	48 89 44 24 48       	mov    %rax,0x48(%rsp)
ffffffff800027a8:	48 c7 44 24 50 04 00 	movq   $0x4,0x50(%rsp)
ffffffff800027af:	00 00 
ffffffff800027b1:	48 8d 3d b8 88 01 00 	lea    0x188b8(%rip),%rdi        # ffffffff8001b070 <x64.tss.tss_iopb+0x70>
ffffffff800027b8:	48 8d 74 24 48       	lea    0x48(%rsp),%rsi
ffffffff800027bd:	e8 0e 0d 00 00       	call   ffffffff800034d0 <io.Writer.print__anon_2200>
ffffffff800027c2:	66 85 c0             	test   %ax,%ax
ffffffff800027c5:	0f 85 8c 03 00 00    	jne    ffffffff80002b57 <main.main+0x1e27>
ffffffff800027cb:	66 ba f8 03          	mov    $0x3f8,%dx
ffffffff800027cf:	b0 74                	mov    $0x74,%al
ffffffff800027d1:	ee                   	out    %al,(%dx)
ffffffff800027d2:	b0 73                	mov    $0x73,%al
ffffffff800027d4:	ee                   	out    %al,(%dx)
ffffffff800027d5:	b0 73                	mov    $0x73,%al
ffffffff800027d7:	ee                   	out    %al,(%dx)
ffffffff800027d8:	b0 20                	mov    $0x20,%al
ffffffff800027da:	ee                   	out    %al,(%dx)
ffffffff800027db:	b0 61                	mov    $0x61,%al
ffffffff800027dd:	ee                   	out    %al,(%dx)
ffffffff800027de:	b0 64                	mov    $0x64,%al
ffffffff800027e0:	ee                   	out    %al,(%dx)
ffffffff800027e1:	b0 64                	mov    $0x64,%al
ffffffff800027e3:	ee                   	out    %al,(%dx)
ffffffff800027e4:	b0 72                	mov    $0x72,%al
ffffffff800027e6:	ee                   	out    %al,(%dx)
ffffffff800027e7:	b0 65                	mov    $0x65,%al
ffffffff800027e9:	ee                   	out    %al,(%dx)
ffffffff800027ea:	b0 73                	mov    $0x73,%al
ffffffff800027ec:	ee                   	out    %al,(%dx)
ffffffff800027ed:	b0 73                	mov    $0x73,%al
ffffffff800027ef:	ee                   	out    %al,(%dx)
ffffffff800027f0:	b0 3a                	mov    $0x3a,%al
ffffffff800027f2:	ee                   	out    %al,(%dx)
ffffffff800027f3:	b0 20                	mov    $0x20,%al
ffffffff800027f5:	ee                   	out    %al,(%dx)
ffffffff800027f6:	b0 30                	mov    $0x30,%al
ffffffff800027f8:	ee                   	out    %al,(%dx)
ffffffff800027f9:	b0 78                	mov    $0x78,%al
ffffffff800027fb:	ee                   	out    %al,(%dx)
ffffffff800027fc:	48 b8 aa aa aa aa aa 	movabs $0xaaaaaaaaaaaaaaaa,%rax
ffffffff80002803:	aa aa aa 
ffffffff80002806:	48 89 44 24 38       	mov    %rax,0x38(%rsp)
ffffffff8000280b:	48 89 44 24 30       	mov    %rax,0x30(%rsp)
ffffffff80002810:	48 89 44 24 28       	mov    %rax,0x28(%rsp)
ffffffff80002815:	48 89 44 24 20       	mov    %rax,0x20(%rsp)
ffffffff8000281a:	48 89 44 24 18       	mov    %rax,0x18(%rsp)
ffffffff8000281f:	48 89 44 24 10       	mov    %rax,0x10(%rsp)
ffffffff80002824:	48 89 44 24 08       	mov    %rax,0x8(%rsp)
ffffffff80002829:	48 89 04 24          	mov    %rax,(%rsp)
ffffffff8000282d:	c6 44 24 40 aa       	movb   $0xaa,0x40(%rsp)
ffffffff80002832:	31 f6                	xor    %esi,%esi
ffffffff80002834:	4c 8d 05 c5 87 01 00 	lea    0x187c5(%rip),%r8        # ffffffff8001b000 <x64.tss.tss_iopb>
ffffffff8000283b:	4c 89 c0             	mov    %r8,%rax
ffffffff8000283e:	66 90                	xchg   %ax,%ax
ffffffff80002840:	44 89 c1             	mov    %r8d,%ecx
ffffffff80002843:	80 e1 0f             	and    $0xf,%cl
ffffffff80002846:	8d 51 30             	lea    0x30(%rcx),%edx
ffffffff80002849:	8d 79 57             	lea    0x57(%rcx),%edi
ffffffff8000284c:	80 f9 0a             	cmp    $0xa,%cl
ffffffff8000284f:	0f b6 ca             	movzbl %dl,%ecx
ffffffff80002852:	40 0f b6 d7          	movzbl %dil,%edx
ffffffff80002856:	0f 42 d1             	cmovb  %ecx,%edx
ffffffff80002859:	88 54 34 40          	mov    %dl,0x40(%rsp,%rsi,1)
ffffffff8000285d:	48 c1 e8 04          	shr    $0x4,%rax
ffffffff80002861:	48 83 c6 ff          	add    $0xffffffffffffffff,%rsi
ffffffff80002865:	49 83 f8 0f          	cmp    $0xf,%r8
ffffffff80002869:	49 89 c0             	mov    %rax,%r8
ffffffff8000286c:	77 d2                	ja     ffffffff80002840 <main.main+0x1b10>
ffffffff8000286e:	48 8d 3c 34          	lea    (%rsp,%rsi,1),%rdi
ffffffff80002872:	48 83 c7 41          	add    $0x41,%rdi
ffffffff80002876:	48 f7 de             	neg    %rsi
ffffffff80002879:	48 8d 15 80 62 01 00 	lea    0x16280(%rip),%rdx        # ffffffff80018b00 <__anon_5249+0x9>
ffffffff80002880:	48 8d 0d e9 87 01 00 	lea    0x187e9(%rip),%rcx        # ffffffff8001b070 <x64.tss.tss_iopb+0x70>
ffffffff80002887:	e8 f4 10 00 00       	call   ffffffff80003980 <fmt.formatBuf__anon_2525>
ffffffff8000288c:	66 85 c0             	test   %ax,%ax
ffffffff8000288f:	0f 85 c2 02 00 00    	jne    ffffffff80002b57 <main.main+0x1e27>
ffffffff80002895:	66 ba f8 03          	mov    $0x3f8,%dx
ffffffff80002899:	b0 0a                	mov    $0xa,%al
ffffffff8000289b:	ee                   	out    %al,(%dx)
ffffffff8000289c:	48 8d 05 5d 87 01 00 	lea    0x1875d(%rip),%rax        # ffffffff8001b000 <x64.tss.tss_iopb>
ffffffff800028a3:	48 89 84 24 c0 00 00 	mov    %rax,0xc0(%rsp)
ffffffff800028aa:	00 
ffffffff800028ab:	c6 84 24 c8 00 00 00 	movb   $0x0,0xc8(%rsp)
ffffffff800028b2:	00 
ffffffff800028b3:	48 8d 0d 37 62 01 00 	lea    0x16237(%rip),%rcx        # ffffffff80018af1 <main.init_file+0x1911>
ffffffff800028ba:	48 8d b4 24 c0 00 00 	lea    0xc0(%rsp),%rsi
ffffffff800028c1:	00 
ffffffff800028c2:	48 8b 7c 24 60       	mov    0x60(%rsp),%rdi
ffffffff800028c7:	48 8b 54 24 58       	mov    0x58(%rsp),%rdx
ffffffff800028cc:	e8 2f 09 00 00       	call   ffffffff80003200 <x64.registers.CR3.setFlags>
ffffffff800028d1:	89 c3                	mov    %eax,%ebx
ffffffff800028d3:	48 8d 05 f8 62 01 00 	lea    0x162f8(%rip),%rax        # ffffffff80018bd2 <__anon_3536>
ffffffff800028da:	48 89 04 24          	mov    %rax,(%rsp)
ffffffff800028de:	48 c7 44 24 08 04 00 	movq   $0x4,0x8(%rsp)
ffffffff800028e5:	00 00 
ffffffff800028e7:	48 8d 3d 82 87 01 00 	lea    0x18782(%rip),%rdi        # ffffffff8001b070 <x64.tss.tss_iopb+0x70>
ffffffff800028ee:	48 89 e6             	mov    %rsp,%rsi
ffffffff800028f1:	e8 da 0b 00 00       	call   ffffffff800034d0 <io.Writer.print__anon_2200>
ffffffff800028f6:	66 85 c0             	test   %ax,%ax
ffffffff800028f9:	0f 85 58 02 00 00    	jne    ffffffff80002b57 <main.main+0x1e27>
ffffffff800028ff:	66 ba f8 03          	mov    $0x3f8,%dx
ffffffff80002903:	b0 73                	mov    $0x73,%al
ffffffff80002905:	ee                   	out    %al,(%dx)
ffffffff80002906:	b0 65                	mov    $0x65,%al
ffffffff80002908:	ee                   	out    %al,(%dx)
ffffffff80002909:	b0 74                	mov    $0x74,%al
ffffffff8000290b:	ee                   	out    %al,(%dx)
ffffffff8000290c:	b0 20                	mov    $0x20,%al
ffffffff8000290e:	ee                   	out    %al,(%dx)
ffffffff8000290f:	b0 66                	mov    $0x66,%al
ffffffff80002911:	ee                   	out    %al,(%dx)
ffffffff80002912:	b0 6c                	mov    $0x6c,%al
ffffffff80002914:	ee                   	out    %al,(%dx)
ffffffff80002915:	b0 61                	mov    $0x61,%al
ffffffff80002917:	ee                   	out    %al,(%dx)
ffffffff80002918:	b0 67                	mov    $0x67,%al
ffffffff8000291a:	ee                   	out    %al,(%dx)
ffffffff8000291b:	b0 73                	mov    $0x73,%al
ffffffff8000291d:	ee                   	out    %al,(%dx)
ffffffff8000291e:	b0 20                	mov    $0x20,%al
ffffffff80002920:	ee                   	out    %al,(%dx)
ffffffff80002921:	b0 77                	mov    $0x77,%al
ffffffff80002923:	ee                   	out    %al,(%dx)
ffffffff80002924:	b0 6f                	mov    $0x6f,%al
ffffffff80002926:	ee                   	out    %al,(%dx)
ffffffff80002927:	b0 72                	mov    $0x72,%al
ffffffff80002929:	ee                   	out    %al,(%dx)
ffffffff8000292a:	b0 6b                	mov    $0x6b,%al
ffffffff8000292c:	ee                   	out    %al,(%dx)
ffffffff8000292d:	b0 65                	mov    $0x65,%al
ffffffff8000292f:	ee                   	out    %al,(%dx)
ffffffff80002930:	b0 64                	mov    $0x64,%al
ffffffff80002932:	ee                   	out    %al,(%dx)
ffffffff80002933:	b0 3a                	mov    $0x3a,%al
ffffffff80002935:	ee                   	out    %al,(%dx)
ffffffff80002936:	b0 20                	mov    $0x20,%al
ffffffff80002938:	ee                   	out    %al,(%dx)
ffffffff80002939:	48 8d 05 be 62 01 00 	lea    0x162be(%rip),%rax        # ffffffff80018bfe <__anon_5606>
ffffffff80002940:	48 8d 3d d4 62 01 00 	lea    0x162d4(%rip),%rdi        # ffffffff80018c1b <__anon_5610>
ffffffff80002947:	f6 c3 01             	test   $0x1,%bl
ffffffff8000294a:	48 0f 45 f8          	cmovne %rax,%rdi
ffffffff8000294e:	0f b6 f3             	movzbl %bl,%esi
ffffffff80002951:	83 e6 01             	and    $0x1,%esi
ffffffff80002954:	48 83 f6 05          	xor    $0x5,%rsi
ffffffff80002958:	48 8d 15 a1 61 01 00 	lea    0x161a1(%rip),%rdx        # ffffffff80018b00 <__anon_5249+0x9>
ffffffff8000295f:	48 8d 0d 0a 87 01 00 	lea    0x1870a(%rip),%rcx        # ffffffff8001b070 <x64.tss.tss_iopb+0x70>
ffffffff80002966:	e8 15 10 00 00       	call   ffffffff80003980 <fmt.formatBuf__anon_2525>
ffffffff8000296b:	66 85 c0             	test   %ax,%ax
ffffffff8000296e:	0f 85 e3 01 00 00    	jne    ffffffff80002b57 <main.main+0x1e27>
ffffffff80002974:	66 ba f8 03          	mov    $0x3f8,%dx
ffffffff80002978:	b0 0a                	mov    $0xa,%al
ffffffff8000297a:	ee                   	out    %al,(%dx)
ffffffff8000297b:	48 c7 84 24 d0 00 00 	movq   $0x0,0xd0(%rsp)
ffffffff80002982:	00 00 00 00 00 
ffffffff80002987:	48 c7 84 24 d8 00 00 	movq   $0x0,0xd8(%rsp)
ffffffff8000298e:	00 00 00 00 00 
ffffffff80002993:	48 c7 84 24 e0 00 00 	movq   $0x0,0xe0(%rsp)
ffffffff8000299a:	00 00 00 00 00 
ffffffff8000299f:	48 c7 84 24 e8 00 00 	movq   $0x0,0xe8(%rsp)
ffffffff800029a6:	00 00 00 00 00 
ffffffff800029ab:	48 c7 84 24 f0 00 00 	movq   $0x0,0xf0(%rsp)
ffffffff800029b2:	00 00 00 00 00 
ffffffff800029b7:	48 c7 84 24 f8 00 00 	movq   $0x0,0xf8(%rsp)
ffffffff800029be:	00 00 00 00 00 
ffffffff800029c3:	48 c7 84 24 08 01 00 	movq   $0x0,0x108(%rsp)
ffffffff800029ca:	00 00 00 00 00 
ffffffff800029cf:	48 c7 84 24 10 01 00 	movq   $0x0,0x110(%rsp)
ffffffff800029d6:	00 00 00 00 00 
ffffffff800029db:	48 c7 84 24 18 01 00 	movq   $0x0,0x118(%rsp)
ffffffff800029e2:	00 00 00 00 00 
ffffffff800029e7:	48 c7 84 24 20 01 00 	movq   $0x0,0x120(%rsp)
ffffffff800029ee:	00 00 00 00 00 
ffffffff800029f3:	48 c7 84 24 28 01 00 	movq   $0x0,0x128(%rsp)
ffffffff800029fa:	00 00 00 00 00 
ffffffff800029ff:	48 c7 84 24 30 01 00 	movq   $0x0,0x130(%rsp)
ffffffff80002a06:	00 00 00 00 00 
ffffffff80002a0b:	48 c7 84 24 38 01 00 	movq   $0x0,0x138(%rsp)
ffffffff80002a12:	00 00 00 00 00 
ffffffff80002a17:	48 c7 84 24 40 01 00 	movq   $0x0,0x140(%rsp)
ffffffff80002a1e:	00 00 00 00 00 
ffffffff80002a23:	48 c7 84 24 48 01 00 	movq   $0x0,0x148(%rsp)
ffffffff80002a2a:	00 00 00 00 00 
ffffffff80002a2f:	48 c7 84 24 00 01 00 	movq   $0x4000ff0,0x100(%rsp)
ffffffff80002a36:	00 f0 0f 00 04 
ffffffff80002a3b:	48 c7 84 24 58 01 00 	movq   $0x202,0x158(%rsp)
ffffffff80002a42:	00 02 02 00 00 
ffffffff80002a47:	48 c7 84 24 50 01 00 	movq   $0x1001130,0x150(%rsp)
ffffffff80002a4e:	00 30 11 00 01 
ffffffff80002a53:	48 8b 44 24 60       	mov    0x60(%rsp),%rax
ffffffff80002a58:	48 89 84 24 60 01 00 	mov    %rax,0x160(%rsp)
ffffffff80002a5f:	00 
ffffffff80002a60:	48 8d 1d 6b 61 01 00 	lea    0x1616b(%rip),%rbx        # ffffffff80018bd2 <__anon_3536>
ffffffff80002a67:	48 89 1c 24          	mov    %rbx,(%rsp)
ffffffff80002a6b:	48 c7 44 24 08 04 00 	movq   $0x4,0x8(%rsp)
ffffffff80002a72:	00 00 
ffffffff80002a74:	48 8d 3d f5 85 01 00 	lea    0x185f5(%rip),%rdi        # ffffffff8001b070 <x64.tss.tss_iopb+0x70>
ffffffff80002a7b:	48 89 e6             	mov    %rsp,%rsi
ffffffff80002a7e:	e8 4d 0a 00 00       	call   ffffffff800034d0 <io.Writer.print__anon_2200>
ffffffff80002a83:	66 85 c0             	test   %ax,%ax
ffffffff80002a86:	0f 85 cb 00 00 00    	jne    ffffffff80002b57 <main.main+0x1e27>
ffffffff80002a8c:	66 ba f8 03          	mov    $0x3f8,%dx
ffffffff80002a90:	b0 6a                	mov    $0x6a,%al
ffffffff80002a92:	ee                   	out    %al,(%dx)
ffffffff80002a93:	b0 75                	mov    $0x75,%al
ffffffff80002a95:	ee                   	out    %al,(%dx)
ffffffff80002a96:	b0 6d                	mov    $0x6d,%al
ffffffff80002a98:	ee                   	out    %al,(%dx)
ffffffff80002a99:	b0 70                	mov    $0x70,%al
ffffffff80002a9b:	ee                   	out    %al,(%dx)
ffffffff80002a9c:	b0 69                	mov    $0x69,%al
ffffffff80002a9e:	ee                   	out    %al,(%dx)
ffffffff80002a9f:	b0 6e                	mov    $0x6e,%al
ffffffff80002aa1:	ee                   	out    %al,(%dx)
ffffffff80002aa2:	b0 67                	mov    $0x67,%al
ffffffff80002aa4:	ee                   	out    %al,(%dx)
ffffffff80002aa5:	b0 20                	mov    $0x20,%al
ffffffff80002aa7:	ee                   	out    %al,(%dx)
ffffffff80002aa8:	b0 74                	mov    $0x74,%al
ffffffff80002aaa:	ee                   	out    %al,(%dx)
ffffffff80002aab:	b0 6f                	mov    $0x6f,%al
ffffffff80002aad:	ee                   	out    %al,(%dx)
ffffffff80002aae:	b0 20                	mov    $0x20,%al
ffffffff80002ab0:	ee                   	out    %al,(%dx)
ffffffff80002ab1:	b0 75                	mov    $0x75,%al
ffffffff80002ab3:	ee                   	out    %al,(%dx)
ffffffff80002ab4:	b0 73                	mov    $0x73,%al
ffffffff80002ab6:	ee                   	out    %al,(%dx)
ffffffff80002ab7:	b0 65                	mov    $0x65,%al
ffffffff80002ab9:	ee                   	out    %al,(%dx)
ffffffff80002aba:	b0 72                	mov    $0x72,%al
ffffffff80002abc:	ee                   	out    %al,(%dx)
ffffffff80002abd:	b0 20                	mov    $0x20,%al
ffffffff80002abf:	ee                   	out    %al,(%dx)
ffffffff80002ac0:	b0 6d                	mov    $0x6d,%al
ffffffff80002ac2:	ee                   	out    %al,(%dx)
ffffffff80002ac3:	b0 6f                	mov    $0x6f,%al
ffffffff80002ac5:	ee                   	out    %al,(%dx)
ffffffff80002ac6:	b0 64                	mov    $0x64,%al
ffffffff80002ac8:	ee                   	out    %al,(%dx)
ffffffff80002ac9:	b0 65                	mov    $0x65,%al
ffffffff80002acb:	ee                   	out    %al,(%dx)
ffffffff80002acc:	b0 0a                	mov    $0xa,%al
ffffffff80002ace:	ee                   	out    %al,(%dx)
ffffffff80002acf:	48 8d bc 24 d0 00 00 	lea    0xd0(%rsp),%rdi
ffffffff80002ad6:	00 
ffffffff80002ad7:	e8 64 df ff ff       	call   ffffffff80000a40 <jump_to_user_mode>
ffffffff80002adc:	48 89 1c 24          	mov    %rbx,(%rsp)
ffffffff80002ae0:	48 c7 44 24 08 04 00 	movq   $0x4,0x8(%rsp)
ffffffff80002ae7:	00 00 
ffffffff80002ae9:	48 8d 3d 80 85 01 00 	lea    0x18580(%rip),%rdi        # ffffffff8001b070 <x64.tss.tss_iopb+0x70>
ffffffff80002af0:	48 89 e6             	mov    %rsp,%rsi
ffffffff80002af3:	e8 d8 09 00 00       	call   ffffffff800034d0 <io.Writer.print__anon_2200>
ffffffff80002af8:	66 85 c0             	test   %ax,%ax
ffffffff80002afb:	75 5a                	jne    ffffffff80002b57 <main.main+0x1e27>
ffffffff80002afd:	66 ba f8 03          	mov    $0x3f8,%dx
ffffffff80002b01:	b0 64                	mov    $0x64,%al
ffffffff80002b03:	ee                   	out    %al,(%dx)
ffffffff80002b04:	b0 6f                	mov    $0x6f,%al
ffffffff80002b06:	ee                   	out    %al,(%dx)
ffffffff80002b07:	b0 6e                	mov    $0x6e,%al
ffffffff80002b09:	ee                   	out    %al,(%dx)
ffffffff80002b0a:	b0 65                	mov    $0x65,%al
ffffffff80002b0c:	ee                   	out    %al,(%dx)
ffffffff80002b0d:	b0 0a                	mov    $0xa,%al
ffffffff80002b0f:	ee                   	out    %al,(%dx)
ffffffff80002b10:	f4                   	hlt
ffffffff80002b11:	eb fd                	jmp    ffffffff80002b10 <main.main+0x1de0>
ffffffff80002b13:	48 8d 3d 33 60 01 00 	lea    0x16033(%rip),%rdi        # ffffffff80018b4d <__anon_1411>
ffffffff80002b1a:	be 10 00 00 00       	mov    $0x10,%esi
ffffffff80002b1f:	e8 6c e1 ff ff       	call   ffffffff80000c90 <main.panic>
ffffffff80002b24:	48 8d 3d ac 60 01 00 	lea    0x160ac(%rip),%rdi        # ffffffff80018bd7 <__anon_1415>
ffffffff80002b2b:	be 1e 00 00 00       	mov    $0x1e,%esi
ffffffff80002b30:	e8 5b e1 ff ff       	call   ffffffff80000c90 <main.panic>
ffffffff80002b35:	48 8d 3d 22 60 01 00 	lea    0x16022(%rip),%rdi        # ffffffff80018b5e <__anon_1328>
ffffffff80002b3c:	be 13 00 00 00       	mov    $0x13,%esi
ffffffff80002b41:	e8 4a e1 ff ff       	call   ffffffff80000c90 <main.panic>
ffffffff80002b46:	48 8d 3d 6d 60 01 00 	lea    0x1606d(%rip),%rdi        # ffffffff80018bba <__anon_1774>
ffffffff80002b4d:	be 17 00 00 00       	mov    $0x17,%esi
ffffffff80002b52:	e8 39 e1 ff ff       	call   ffffffff80000c90 <main.panic>
ffffffff80002b57:	48 8d 3d c3 60 01 00 	lea    0x160c3(%rip),%rdi        # ffffffff80018c21 <__anon_3293>
ffffffff80002b5e:	be 12 00 00 00       	mov    $0x12,%esi
ffffffff80002b63:	e8 28 e1 ff ff       	call   ffffffff80000c90 <main.panic>
ffffffff80002b68:	48 8d 3d 1f 60 01 00 	lea    0x1601f(%rip),%rdi        # ffffffff80018b8e <__anon_1287>
ffffffff80002b6f:	be 13 00 00 00       	mov    $0x13,%esi
ffffffff80002b74:	e8 17 e1 ff ff       	call   ffffffff80000c90 <main.panic>
ffffffff80002b79:	48 8d 3d 22 60 01 00 	lea    0x16022(%rip),%rdi        # ffffffff80018ba2 <__anon_2989>
ffffffff80002b80:	be 17 00 00 00       	mov    $0x17,%esi
ffffffff80002b85:	e8 06 e1 ff ff       	call   ffffffff80000c90 <main.panic>
ffffffff80002b8a:	66 0f 1f 44 00 00    	nopw   0x0(%rax,%rax,1)

ffffffff80002b90 <syscall_handler>:
ffffffff80002b90:	55                   	push   %rbp
ffffffff80002b91:	41 57                	push   %r15
ffffffff80002b93:	41 56                	push   %r14
ffffffff80002b95:	41 55                	push   %r13
ffffffff80002b97:	41 54                	push   %r12
ffffffff80002b99:	53                   	push   %rbx
ffffffff80002b9a:	48 83 ec 18          	sub    $0x18,%rsp
ffffffff80002b9e:	4c 89 cb             	mov    %r9,%rbx
ffffffff80002ba1:	4d 89 c6             	mov    %r8,%r14
ffffffff80002ba4:	49 89 cf             	mov    %rcx,%r15
ffffffff80002ba7:	49 89 d4             	mov    %rdx,%r12
ffffffff80002baa:	49 89 f5             	mov    %rsi,%r13
ffffffff80002bad:	48 89 fd             	mov    %rdi,%rbp
ffffffff80002bb0:	48 8d 05 1b 60 01 00 	lea    0x1601b(%rip),%rax        # ffffffff80018bd2 <__anon_3536>
ffffffff80002bb7:	48 89 44 24 08       	mov    %rax,0x8(%rsp)
ffffffff80002bbc:	48 c7 44 24 10 04 00 	movq   $0x4,0x10(%rsp)
ffffffff80002bc3:	00 00 
ffffffff80002bc5:	48 8d 3d a4 84 01 00 	lea    0x184a4(%rip),%rdi        # ffffffff8001b070 <x64.tss.tss_iopb+0x70>
ffffffff80002bcc:	48 8d 74 24 08       	lea    0x8(%rsp),%rsi
ffffffff80002bd1:	e8 fa 08 00 00       	call   ffffffff800034d0 <io.Writer.print__anon_2200>
ffffffff80002bd6:	66 85 c0             	test   %ax,%ax
ffffffff80002bd9:	0f 85 44 01 00 00    	jne    ffffffff80002d23 <syscall_handler+0x193>
ffffffff80002bdf:	66 ba f8 03          	mov    $0x3f8,%dx
ffffffff80002be3:	b0 53                	mov    $0x53,%al
ffffffff80002be5:	ee                   	out    %al,(%dx)
ffffffff80002be6:	b0 79                	mov    $0x79,%al
ffffffff80002be8:	ee                   	out    %al,(%dx)
ffffffff80002be9:	b0 73                	mov    $0x73,%al
ffffffff80002beb:	ee                   	out    %al,(%dx)
ffffffff80002bec:	b0 63                	mov    $0x63,%al
ffffffff80002bee:	ee                   	out    %al,(%dx)
ffffffff80002bef:	b0 61                	mov    $0x61,%al
ffffffff80002bf1:	ee                   	out    %al,(%dx)
ffffffff80002bf2:	b0 6c                	mov    $0x6c,%al
ffffffff80002bf4:	ee                   	out    %al,(%dx)
ffffffff80002bf5:	b0 6c                	mov    $0x6c,%al
ffffffff80002bf7:	ee                   	out    %al,(%dx)
ffffffff80002bf8:	b0 21                	mov    $0x21,%al
ffffffff80002bfa:	ee                   	out    %al,(%dx)
ffffffff80002bfb:	b0 0a                	mov    $0xa,%al
ffffffff80002bfd:	ee                   	out    %al,(%dx)
ffffffff80002bfe:	b0 20                	mov    $0x20,%al
ffffffff80002c00:	ee                   	out    %al,(%dx)
ffffffff80002c01:	b0 72                	mov    $0x72,%al
ffffffff80002c03:	ee                   	out    %al,(%dx)
ffffffff80002c04:	b0 64                	mov    $0x64,%al
ffffffff80002c06:	ee                   	out    %al,(%dx)
ffffffff80002c07:	b0 69                	mov    $0x69,%al
ffffffff80002c09:	ee                   	out    %al,(%dx)
ffffffff80002c0a:	b0 3a                	mov    $0x3a,%al
ffffffff80002c0c:	ee                   	out    %al,(%dx)
ffffffff80002c0d:	b0 20                	mov    $0x20,%al
ffffffff80002c0f:	ee                   	out    %al,(%dx)
ffffffff80002c10:	48 8d 35 59 84 01 00 	lea    0x18459(%rip),%rsi        # ffffffff8001b070 <x64.tss.tss_iopb+0x70>
ffffffff80002c17:	48 89 ef             	mov    %rbp,%rdi
ffffffff80002c1a:	e8 51 0c 00 00       	call   ffffffff80003870 <fmt.formatType__anon_2524>
ffffffff80002c1f:	66 85 c0             	test   %ax,%ax
ffffffff80002c22:	0f 85 fb 00 00 00    	jne    ffffffff80002d23 <syscall_handler+0x193>
ffffffff80002c28:	66 ba f8 03          	mov    $0x3f8,%dx
ffffffff80002c2c:	b0 2c                	mov    $0x2c,%al
ffffffff80002c2e:	ee                   	out    %al,(%dx)
ffffffff80002c2f:	b0 20                	mov    $0x20,%al
ffffffff80002c31:	ee                   	out    %al,(%dx)
ffffffff80002c32:	b0 72                	mov    $0x72,%al
ffffffff80002c34:	ee                   	out    %al,(%dx)
ffffffff80002c35:	b0 73                	mov    $0x73,%al
ffffffff80002c37:	ee                   	out    %al,(%dx)
ffffffff80002c38:	b0 69                	mov    $0x69,%al
ffffffff80002c3a:	ee                   	out    %al,(%dx)
ffffffff80002c3b:	b0 3a                	mov    $0x3a,%al
ffffffff80002c3d:	ee                   	out    %al,(%dx)
ffffffff80002c3e:	b0 20                	mov    $0x20,%al
ffffffff80002c40:	ee                   	out    %al,(%dx)
ffffffff80002c41:	48 8d 35 28 84 01 00 	lea    0x18428(%rip),%rsi        # ffffffff8001b070 <x64.tss.tss_iopb+0x70>
ffffffff80002c48:	4c 89 ef             	mov    %r13,%rdi
ffffffff80002c4b:	e8 20 0c 00 00       	call   ffffffff80003870 <fmt.formatType__anon_2524>
ffffffff80002c50:	66 85 c0             	test   %ax,%ax
ffffffff80002c53:	0f 85 ca 00 00 00    	jne    ffffffff80002d23 <syscall_handler+0x193>
ffffffff80002c59:	66 ba f8 03          	mov    $0x3f8,%dx
ffffffff80002c5d:	b0 2c                	mov    $0x2c,%al
ffffffff80002c5f:	ee                   	out    %al,(%dx)
ffffffff80002c60:	b0 20                	mov    $0x20,%al
ffffffff80002c62:	ee                   	out    %al,(%dx)
ffffffff80002c63:	b0 72                	mov    $0x72,%al
ffffffff80002c65:	ee                   	out    %al,(%dx)
ffffffff80002c66:	b0 64                	mov    $0x64,%al
ffffffff80002c68:	ee                   	out    %al,(%dx)
ffffffff80002c69:	b0 78                	mov    $0x78,%al
ffffffff80002c6b:	ee                   	out    %al,(%dx)
ffffffff80002c6c:	b0 3a                	mov    $0x3a,%al
ffffffff80002c6e:	ee                   	out    %al,(%dx)
ffffffff80002c6f:	b0 20                	mov    $0x20,%al
ffffffff80002c71:	ee                   	out    %al,(%dx)
ffffffff80002c72:	48 8d 35 f7 83 01 00 	lea    0x183f7(%rip),%rsi        # ffffffff8001b070 <x64.tss.tss_iopb+0x70>
ffffffff80002c79:	4c 89 e7             	mov    %r12,%rdi
ffffffff80002c7c:	e8 ef 0b 00 00       	call   ffffffff80003870 <fmt.formatType__anon_2524>
ffffffff80002c81:	66 85 c0             	test   %ax,%ax
ffffffff80002c84:	0f 85 99 00 00 00    	jne    ffffffff80002d23 <syscall_handler+0x193>
ffffffff80002c8a:	66 ba f8 03          	mov    $0x3f8,%dx
ffffffff80002c8e:	b0 2c                	mov    $0x2c,%al
ffffffff80002c90:	ee                   	out    %al,(%dx)
ffffffff80002c91:	b0 20                	mov    $0x20,%al
ffffffff80002c93:	ee                   	out    %al,(%dx)
ffffffff80002c94:	b0 72                	mov    $0x72,%al
ffffffff80002c96:	ee                   	out    %al,(%dx)
ffffffff80002c97:	b0 63                	mov    $0x63,%al
ffffffff80002c99:	ee                   	out    %al,(%dx)
ffffffff80002c9a:	b0 78                	mov    $0x78,%al
ffffffff80002c9c:	ee                   	out    %al,(%dx)
ffffffff80002c9d:	b0 3a                	mov    $0x3a,%al
ffffffff80002c9f:	ee                   	out    %al,(%dx)
ffffffff80002ca0:	b0 20                	mov    $0x20,%al
ffffffff80002ca2:	ee                   	out    %al,(%dx)
ffffffff80002ca3:	48 8d 35 c6 83 01 00 	lea    0x183c6(%rip),%rsi        # ffffffff8001b070 <x64.tss.tss_iopb+0x70>
ffffffff80002caa:	4c 89 ff             	mov    %r15,%rdi
ffffffff80002cad:	e8 be 0b 00 00       	call   ffffffff80003870 <fmt.formatType__anon_2524>
ffffffff80002cb2:	66 85 c0             	test   %ax,%ax
ffffffff80002cb5:	75 6c                	jne    ffffffff80002d23 <syscall_handler+0x193>
ffffffff80002cb7:	66 ba f8 03          	mov    $0x3f8,%dx
ffffffff80002cbb:	b0 2c                	mov    $0x2c,%al
ffffffff80002cbd:	ee                   	out    %al,(%dx)
ffffffff80002cbe:	b0 20                	mov    $0x20,%al
ffffffff80002cc0:	ee                   	out    %al,(%dx)
ffffffff80002cc1:	b0 72                	mov    $0x72,%al
ffffffff80002cc3:	ee                   	out    %al,(%dx)
ffffffff80002cc4:	b0 38                	mov    $0x38,%al
ffffffff80002cc6:	ee                   	out    %al,(%dx)
ffffffff80002cc7:	b0 3a                	mov    $0x3a,%al
ffffffff80002cc9:	ee                   	out    %al,(%dx)
ffffffff80002cca:	b0 20                	mov    $0x20,%al
ffffffff80002ccc:	ee                   	out    %al,(%dx)
ffffffff80002ccd:	48 8d 35 9c 83 01 00 	lea    0x1839c(%rip),%rsi        # ffffffff8001b070 <x64.tss.tss_iopb+0x70>
ffffffff80002cd4:	4c 89 f7             	mov    %r14,%rdi
ffffffff80002cd7:	e8 94 0b 00 00       	call   ffffffff80003870 <fmt.formatType__anon_2524>
ffffffff80002cdc:	66 85 c0             	test   %ax,%ax
ffffffff80002cdf:	75 42                	jne    ffffffff80002d23 <syscall_handler+0x193>
ffffffff80002ce1:	66 ba f8 03          	mov    $0x3f8,%dx
ffffffff80002ce5:	b0 2c                	mov    $0x2c,%al
ffffffff80002ce7:	ee                   	out    %al,(%dx)
ffffffff80002ce8:	b0 20                	mov    $0x20,%al
ffffffff80002cea:	ee                   	out    %al,(%dx)
ffffffff80002ceb:	b0 72                	mov    $0x72,%al
ffffffff80002ced:	ee                   	out    %al,(%dx)
ffffffff80002cee:	b0 39                	mov    $0x39,%al
ffffffff80002cf0:	ee                   	out    %al,(%dx)
ffffffff80002cf1:	b0 3a                	mov    $0x3a,%al
ffffffff80002cf3:	ee                   	out    %al,(%dx)
ffffffff80002cf4:	b0 20                	mov    $0x20,%al
ffffffff80002cf6:	ee                   	out    %al,(%dx)
ffffffff80002cf7:	48 8d 35 72 83 01 00 	lea    0x18372(%rip),%rsi        # ffffffff8001b070 <x64.tss.tss_iopb+0x70>
ffffffff80002cfe:	48 89 df             	mov    %rbx,%rdi
ffffffff80002d01:	e8 6a 0b 00 00       	call   ffffffff80003870 <fmt.formatType__anon_2524>
ffffffff80002d06:	66 85 c0             	test   %ax,%ax
ffffffff80002d09:	75 18                	jne    ffffffff80002d23 <syscall_handler+0x193>
ffffffff80002d0b:	66 ba f8 03          	mov    $0x3f8,%dx
ffffffff80002d0f:	b0 0a                	mov    $0xa,%al
ffffffff80002d11:	ee                   	out    %al,(%dx)
ffffffff80002d12:	31 c0                	xor    %eax,%eax
ffffffff80002d14:	48 83 c4 18          	add    $0x18,%rsp
ffffffff80002d18:	5b                   	pop    %rbx
ffffffff80002d19:	41 5c                	pop    %r12
ffffffff80002d1b:	41 5d                	pop    %r13
ffffffff80002d1d:	41 5e                	pop    %r14
ffffffff80002d1f:	41 5f                	pop    %r15
ffffffff80002d21:	5d                   	pop    %rbp
ffffffff80002d22:	c3                   	ret
ffffffff80002d23:	48 8d 3d f7 5e 01 00 	lea    0x15ef7(%rip),%rdi        # ffffffff80018c21 <__anon_3293>
ffffffff80002d2a:	be 12 00 00 00       	mov    $0x12,%esi
ffffffff80002d2f:	e8 5c df ff ff       	call   ffffffff80000c90 <main.panic>
ffffffff80002d34:	66 2e 0f 1f 84 00 00 	cs nopw 0x0(%rax,%rax,1)
ffffffff80002d3b:	00 00 00 
ffffffff80002d3e:	66 90                	xchg   %ax,%ax

ffffffff80002d40 <pmm.FrameAllocator.allocate_frame>:
ffffffff80002d40:	53                   	push   %rbx
ffffffff80002d41:	48 8b 07             	mov    (%rdi),%rax
ffffffff80002d44:	48 85 c0             	test   %rax,%rax
ffffffff80002d47:	74 55                	je     ffffffff80002d9e <pmm.FrameAllocator.allocate_frame+0x5e>
ffffffff80002d49:	48 03 47 08          	add    0x8(%rdi),%rax
ffffffff80002d4d:	72 56                	jb     ffffffff80002da5 <pmm.FrameAllocator.allocate_frame+0x65>
ffffffff80002d4f:	74 65                	je     ffffffff80002db6 <pmm.FrameAllocator.allocate_frame+0x76>
ffffffff80002d51:	a8 0f                	test   $0xf,%al
ffffffff80002d53:	75 72                	jne    ffffffff80002dc7 <pmm.FrameAllocator.allocate_frame+0x87>
ffffffff80002d55:	48 8b 08             	mov    (%rax),%rcx
ffffffff80002d58:	48 83 e9 01          	sub    $0x1,%rcx
ffffffff80002d5c:	72 47                	jb     ffffffff80002da5 <pmm.FrameAllocator.allocate_frame+0x65>
ffffffff80002d5e:	48 89 08             	mov    %rcx,(%rax)
ffffffff80002d61:	48 89 ca             	mov    %rcx,%rdx
ffffffff80002d64:	48 c1 ea 34          	shr    $0x34,%rdx
ffffffff80002d68:	75 3b                	jne    ffffffff80002da5 <pmm.FrameAllocator.allocate_frame+0x65>
ffffffff80002d6a:	48 89 cb             	mov    %rcx,%rbx
ffffffff80002d6d:	48 c1 e3 0c          	shl    $0xc,%rbx
ffffffff80002d71:	48 03 1f             	add    (%rdi),%rbx
ffffffff80002d74:	72 2f                	jb     ffffffff80002da5 <pmm.FrameAllocator.allocate_frame+0x65>
ffffffff80002d76:	48 85 c9             	test   %rcx,%rcx
ffffffff80002d79:	75 07                	jne    ffffffff80002d82 <pmm.FrameAllocator.allocate_frame+0x42>
ffffffff80002d7b:	48 8b 40 08          	mov    0x8(%rax),%rax
ffffffff80002d7f:	48 89 07             	mov    %rax,(%rdi)
ffffffff80002d82:	48 8b 7f 08          	mov    0x8(%rdi),%rdi
ffffffff80002d86:	48 01 df             	add    %rbx,%rdi
ffffffff80002d89:	72 1a                	jb     ffffffff80002da5 <pmm.FrameAllocator.allocate_frame+0x65>
ffffffff80002d8b:	74 29                	je     ffffffff80002db6 <pmm.FrameAllocator.allocate_frame+0x76>
ffffffff80002d8d:	ba 00 10 00 00       	mov    $0x1000,%edx
ffffffff80002d92:	31 f6                	xor    %esi,%esi
ffffffff80002d94:	e8 d7 d3 ff ff       	call   ffffffff80000170 <memset>
ffffffff80002d99:	48 89 d8             	mov    %rbx,%rax
ffffffff80002d9c:	5b                   	pop    %rbx
ffffffff80002d9d:	c3                   	ret
ffffffff80002d9e:	31 db                	xor    %ebx,%ebx
ffffffff80002da0:	48 89 d8             	mov    %rbx,%rax
ffffffff80002da3:	5b                   	pop    %rbx
ffffffff80002da4:	c3                   	ret
ffffffff80002da5:	48 8d 3d a1 5d 01 00 	lea    0x15da1(%rip),%rdi        # ffffffff80018b4d <__anon_1411>
ffffffff80002dac:	be 10 00 00 00       	mov    $0x10,%esi
ffffffff80002db1:	e8 da de ff ff       	call   ffffffff80000c90 <main.panic>
ffffffff80002db6:	48 8d 3d 1a 5e 01 00 	lea    0x15e1a(%rip),%rdi        # ffffffff80018bd7 <__anon_1415>
ffffffff80002dbd:	be 1e 00 00 00       	mov    $0x1e,%esi
ffffffff80002dc2:	e8 c9 de ff ff       	call   ffffffff80000c90 <main.panic>
ffffffff80002dc7:	48 8d 3d 90 5d 01 00 	lea    0x15d90(%rip),%rdi        # ffffffff80018b5e <__anon_1328>
ffffffff80002dce:	be 13 00 00 00       	mov    $0x13,%esi
ffffffff80002dd3:	e8 b8 de ff ff       	call   ffffffff80000c90 <main.panic>
ffffffff80002dd8:	0f 1f 84 00 00 00 00 	nopl   0x0(%rax,%rax,1)
ffffffff80002ddf:	00 

ffffffff80002de0 <x64.registers.CR3.map>:
ffffffff80002de0:	55                   	push   %rbp
ffffffff80002de1:	41 57                	push   %r15
ffffffff80002de3:	41 56                	push   %r14
ffffffff80002de5:	41 55                	push   %r13
ffffffff80002de7:	41 54                	push   %r12
ffffffff80002de9:	53                   	push   %rbx
ffffffff80002dea:	48 83 ec 28          	sub    $0x28,%rsp
ffffffff80002dee:	44 0f b6 5e 08       	movzbl 0x8(%rsi),%r11d
ffffffff80002df3:	41 80 fb 03          	cmp    $0x3,%r11b
ffffffff80002df7:	0f 84 d7 03 00 00    	je     ffffffff800031d4 <x64.registers.CR3.map+0x3f4>
ffffffff80002dfd:	48 89 fd             	mov    %rdi,%rbp
ffffffff80002e00:	48 81 e5 00 f0 ff ff 	and    $0xfffffffffffff000,%rbp
ffffffff80002e07:	48 01 cd             	add    %rcx,%rbp
ffffffff80002e0a:	0f 82 91 03 00 00    	jb     ffffffff800031a1 <x64.registers.CR3.map+0x3c1>
ffffffff80002e10:	0f 84 9c 03 00 00    	je     ffffffff800031b2 <x64.registers.CR3.map+0x3d2>
ffffffff80002e16:	40 f6 c5 07          	test   $0x7,%bpl
ffffffff80002e1a:	0f 85 a3 03 00 00    	jne    ffffffff800031c3 <x64.registers.CR3.map+0x3e3>
ffffffff80002e20:	4d 89 cf             	mov    %r9,%r15
ffffffff80002e23:	48 89 74 24 20       	mov    %rsi,0x20(%rsp)
ffffffff80002e28:	4c 8b 26             	mov    (%rsi),%r12
ffffffff80002e2b:	48 bf 00 f0 ff ff ff 	movabs $0xffffffffff000,%rdi
ffffffff80002e32:	ff 0f 00 
ffffffff80002e35:	4d 89 e6             	mov    %r12,%r14
ffffffff80002e38:	49 c1 ee 27          	shr    $0x27,%r14
ffffffff80002e3c:	41 81 e6 ff 01 00 00 	and    $0x1ff,%r14d
ffffffff80002e43:	44 89 f0             	mov    %r14d,%eax
ffffffff80002e46:	48 f7 44 c5 00 01 00 	testq  $0x1,0x0(%rbp,%rax,8)
ffffffff80002e4d:	00 00 
ffffffff80002e4f:	75 5f                	jne    ffffffff80002eb0 <x64.registers.CR3.map+0xd0>
ffffffff80002e51:	44 88 5c 24 0f       	mov    %r11b,0xf(%rsp)
ffffffff80002e56:	48 89 4c 24 10       	mov    %rcx,0x10(%rsp)
ffffffff80002e5b:	49 89 d5             	mov    %rdx,%r13
ffffffff80002e5e:	4c 89 c3             	mov    %r8,%rbx
ffffffff80002e61:	4c 89 c7             	mov    %r8,%rdi
ffffffff80002e64:	e8 d7 fe ff ff       	call   ffffffff80002d40 <pmm.FrameAllocator.allocate_frame>
ffffffff80002e69:	48 85 c0             	test   %rax,%rax
ffffffff80002e6c:	0f 84 1a 03 00 00    	je     ffffffff8000318c <x64.registers.CR3.map+0x3ac>
ffffffff80002e72:	4a c7 44 f5 00 07 00 	movq   $0x7,0x0(%rbp,%r14,8)
ffffffff80002e79:	00 00 
ffffffff80002e7b:	48 b9 ff 0f 00 00 00 	movabs $0xfff0000000000fff,%rcx
ffffffff80002e82:	00 f0 ff 
ffffffff80002e85:	4a 23 4c f5 00       	and    0x0(%rbp,%r14,8),%rcx
ffffffff80002e8a:	48 bf 00 f0 ff ff ff 	movabs $0xffffffffff000,%rdi
ffffffff80002e91:	ff 0f 00 
ffffffff80002e94:	48 21 f8             	and    %rdi,%rax
ffffffff80002e97:	48 09 c8             	or     %rcx,%rax
ffffffff80002e9a:	4a 89 44 f5 00       	mov    %rax,0x0(%rbp,%r14,8)
ffffffff80002e9f:	4c 89 ea             	mov    %r13,%rdx
ffffffff80002ea2:	48 8b 4c 24 10       	mov    0x10(%rsp),%rcx
ffffffff80002ea7:	49 89 d8             	mov    %rbx,%r8
ffffffff80002eaa:	44 0f b6 5c 24 0f    	movzbl 0xf(%rsp),%r11d
ffffffff80002eb0:	4a 8b 44 f5 00       	mov    0x0(%rbp,%r14,8),%rax
ffffffff80002eb5:	a8 01                	test   $0x1,%al
ffffffff80002eb7:	0f 84 28 03 00 00    	je     ffffffff800031e5 <x64.registers.CR3.map+0x405>
ffffffff80002ebd:	4a 8b 44 f5 00       	mov    0x0(%rbp,%r14,8),%rax
ffffffff80002ec2:	4e 8b 6c f5 00       	mov    0x0(%rbp,%r14,8),%r13
ffffffff80002ec7:	49 21 fd             	and    %rdi,%r13
ffffffff80002eca:	49 01 cd             	add    %rcx,%r13
ffffffff80002ecd:	0f 82 ce 02 00 00    	jb     ffffffff800031a1 <x64.registers.CR3.map+0x3c1>
ffffffff80002ed3:	0f 84 d9 02 00 00    	je     ffffffff800031b2 <x64.registers.CR3.map+0x3d2>
ffffffff80002ed9:	41 f6 c5 07          	test   $0x7,%r13b
ffffffff80002edd:	0f 85 e0 02 00 00    	jne    ffffffff800031c3 <x64.registers.CR3.map+0x3e3>
ffffffff80002ee3:	4d 89 e6             	mov    %r12,%r14
ffffffff80002ee6:	49 c1 ee 1e          	shr    $0x1e,%r14
ffffffff80002eea:	41 81 e6 ff 01 00 00 	and    $0x1ff,%r14d
ffffffff80002ef1:	44 89 f0             	mov    %r14d,%eax
ffffffff80002ef4:	49 8b 44 c5 00       	mov    0x0(%r13,%rax,8),%rax
ffffffff80002ef9:	41 80 fb 02          	cmp    $0x2,%r11b
ffffffff80002efd:	75 6a                	jne    ffffffff80002f69 <x64.registers.CR3.map+0x189>
ffffffff80002eff:	66 bd 01 00          	mov    $0x1,%bp
ffffffff80002f03:	a8 01                	test   $0x1,%al
ffffffff80002f05:	0f 85 85 02 00 00    	jne    ffffffff80003190 <x64.registers.CR3.map+0x3b0>
ffffffff80002f0b:	41 0f b6 07          	movzbl (%r15),%eax
ffffffff80002f0f:	41 0f b6 4f 02       	movzbl 0x2(%r15),%ecx
ffffffff80002f14:	c1 e1 02             	shl    $0x2,%ecx
ffffffff80002f17:	31 f6                	xor    %esi,%esi
ffffffff80002f19:	41 80 7f 01 00       	cmpb   $0x0,0x1(%r15)
ffffffff80002f1e:	40 0f 94 c6          	sete   %sil
ffffffff80002f22:	48 c1 e6 3f          	shl    $0x3f,%rsi
ffffffff80002f26:	8d 04 41             	lea    (%rcx,%rax,2),%eax
ffffffff80002f29:	48 01 f0             	add    %rsi,%rax
ffffffff80002f2c:	48 05 81 00 00 00    	add    $0x81,%rax
ffffffff80002f32:	4b 89 44 f5 00       	mov    %rax,0x0(%r13,%r14,8)
ffffffff80002f37:	48 89 d0             	mov    %rdx,%rax
ffffffff80002f3a:	48 c1 e0 22          	shl    $0x22,%rax
ffffffff80002f3e:	66 bd 02 00          	mov    $0x2,%bp
ffffffff80002f42:	0f 85 48 02 00 00    	jne    ffffffff80003190 <x64.registers.CR3.map+0x3b0>
ffffffff80002f48:	48 b8 ff 0f 00 00 00 	movabs $0xfff0000000000fff,%rax
ffffffff80002f4f:	00 f0 ff 
ffffffff80002f52:	48 0d 00 f0 ff 3f    	or     $0x3ffff000,%rax
ffffffff80002f58:	4b 23 44 f5 00       	and    0x0(%r13,%r14,8),%rax
ffffffff80002f5d:	48 81 c7 00 10 00 c0 	add    $0xffffffffc0001000,%rdi
ffffffff80002f64:	e9 10 01 00 00       	jmp    ffffffff80003079 <x64.registers.CR3.map+0x299>
ffffffff80002f69:	a8 01                	test   $0x1,%al
ffffffff80002f6b:	75 5f                	jne    ffffffff80002fcc <x64.registers.CR3.map+0x1ec>
ffffffff80002f6d:	44 88 5c 24 0f       	mov    %r11b,0xf(%rsp)
ffffffff80002f72:	48 89 4c 24 10       	mov    %rcx,0x10(%rsp)
ffffffff80002f77:	48 89 fd             	mov    %rdi,%rbp
ffffffff80002f7a:	48 89 54 24 18       	mov    %rdx,0x18(%rsp)
ffffffff80002f7f:	4c 89 c3             	mov    %r8,%rbx
ffffffff80002f82:	4c 89 c7             	mov    %r8,%rdi
ffffffff80002f85:	e8 b6 fd ff ff       	call   ffffffff80002d40 <pmm.FrameAllocator.allocate_frame>
ffffffff80002f8a:	48 85 c0             	test   %rax,%rax
ffffffff80002f8d:	0f 84 f9 01 00 00    	je     ffffffff8000318c <x64.registers.CR3.map+0x3ac>
ffffffff80002f93:	4b c7 44 f5 00 07 00 	movq   $0x7,0x0(%r13,%r14,8)
ffffffff80002f9a:	00 00 
ffffffff80002f9c:	48 b9 ff 0f 00 00 00 	movabs $0xfff0000000000fff,%rcx
ffffffff80002fa3:	00 f0 ff 
ffffffff80002fa6:	4b 23 4c f5 00       	and    0x0(%r13,%r14,8),%rcx
ffffffff80002fab:	48 89 ef             	mov    %rbp,%rdi
ffffffff80002fae:	48 21 e8             	and    %rbp,%rax
ffffffff80002fb1:	48 09 c8             	or     %rcx,%rax
ffffffff80002fb4:	4b 89 44 f5 00       	mov    %rax,0x0(%r13,%r14,8)
ffffffff80002fb9:	48 8b 54 24 18       	mov    0x18(%rsp),%rdx
ffffffff80002fbe:	48 8b 4c 24 10       	mov    0x10(%rsp),%rcx
ffffffff80002fc3:	49 89 d8             	mov    %rbx,%r8
ffffffff80002fc6:	44 0f b6 5c 24 0f    	movzbl 0xf(%rsp),%r11d
ffffffff80002fcc:	4b 8b 44 f5 00       	mov    0x0(%r13,%r14,8),%rax
ffffffff80002fd1:	66 bd 01 00          	mov    $0x1,%bp
ffffffff80002fd5:	84 c0                	test   %al,%al
ffffffff80002fd7:	0f 88 b3 01 00 00    	js     ffffffff80003190 <x64.registers.CR3.map+0x3b0>
ffffffff80002fdd:	4b 8b 44 f5 00       	mov    0x0(%r13,%r14,8),%rax
ffffffff80002fe2:	a8 01                	test   $0x1,%al
ffffffff80002fe4:	0f 84 fb 01 00 00    	je     ffffffff800031e5 <x64.registers.CR3.map+0x405>
ffffffff80002fea:	4b 8b 44 f5 00       	mov    0x0(%r13,%r14,8),%rax
ffffffff80002fef:	4f 8b 6c f5 00       	mov    0x0(%r13,%r14,8),%r13
ffffffff80002ff4:	49 21 fd             	and    %rdi,%r13
ffffffff80002ff7:	49 01 cd             	add    %rcx,%r13
ffffffff80002ffa:	0f 82 a1 01 00 00    	jb     ffffffff800031a1 <x64.registers.CR3.map+0x3c1>
ffffffff80003000:	0f 84 ac 01 00 00    	je     ffffffff800031b2 <x64.registers.CR3.map+0x3d2>
ffffffff80003006:	41 f6 c5 07          	test   $0x7,%r13b
ffffffff8000300a:	0f 85 b3 01 00 00    	jne    ffffffff800031c3 <x64.registers.CR3.map+0x3e3>
ffffffff80003010:	45 89 e6             	mov    %r12d,%r14d
ffffffff80003013:	41 c1 ee 15          	shr    $0x15,%r14d
ffffffff80003017:	41 81 e6 ff 01 00 00 	and    $0x1ff,%r14d
ffffffff8000301e:	4b 8b 44 f5 00       	mov    0x0(%r13,%r14,8),%rax
ffffffff80003023:	41 80 fb 01          	cmp    $0x1,%r11b
ffffffff80003027:	75 62                	jne    ffffffff8000308b <x64.registers.CR3.map+0x2ab>
ffffffff80003029:	a8 01                	test   $0x1,%al
ffffffff8000302b:	0f 85 5f 01 00 00    	jne    ffffffff80003190 <x64.registers.CR3.map+0x3b0>
ffffffff80003031:	41 0f b6 07          	movzbl (%r15),%eax
ffffffff80003035:	41 0f b6 4f 02       	movzbl 0x2(%r15),%ecx
ffffffff8000303a:	c1 e1 02             	shl    $0x2,%ecx
ffffffff8000303d:	31 f6                	xor    %esi,%esi
ffffffff8000303f:	41 80 7f 01 00       	cmpb   $0x0,0x1(%r15)
ffffffff80003044:	40 0f 94 c6          	sete   %sil
ffffffff80003048:	48 c1 e6 3f          	shl    $0x3f,%rsi
ffffffff8000304c:	8d 04 41             	lea    (%rcx,%rax,2),%eax
ffffffff8000304f:	48 01 f0             	add    %rsi,%rax
ffffffff80003052:	48 05 81 00 00 00    	add    $0x81,%rax
ffffffff80003058:	4b 89 44 f5 00       	mov    %rax,0x0(%r13,%r14,8)
ffffffff8000305d:	48 b8 ff 0f 00 00 00 	movabs $0xfff0000000000fff,%rax
ffffffff80003064:	00 f0 ff 
ffffffff80003067:	48 0d 00 f0 1f 00    	or     $0x1ff000,%rax
ffffffff8000306d:	4b 23 44 f5 00       	and    0x0(%r13,%r14,8),%rax
ffffffff80003072:	48 81 c7 00 10 e0 ff 	add    $0xffffffffffe01000,%rdi
ffffffff80003079:	48 21 fa             	and    %rdi,%rdx
ffffffff8000307c:	48 09 c2             	or     %rax,%rdx
ffffffff8000307f:	4b 89 54 f5 00       	mov    %rdx,0x0(%r13,%r14,8)
ffffffff80003084:	31 ed                	xor    %ebp,%ebp
ffffffff80003086:	e9 05 01 00 00       	jmp    ffffffff80003190 <x64.registers.CR3.map+0x3b0>
ffffffff8000308b:	a8 01                	test   $0x1,%al
ffffffff8000308d:	75 4e                	jne    ffffffff800030dd <x64.registers.CR3.map+0x2fd>
ffffffff8000308f:	48 89 4c 24 10       	mov    %rcx,0x10(%rsp)
ffffffff80003094:	48 89 fb             	mov    %rdi,%rbx
ffffffff80003097:	48 89 54 24 18       	mov    %rdx,0x18(%rsp)
ffffffff8000309c:	4c 89 c7             	mov    %r8,%rdi
ffffffff8000309f:	e8 9c fc ff ff       	call   ffffffff80002d40 <pmm.FrameAllocator.allocate_frame>
ffffffff800030a4:	48 85 c0             	test   %rax,%rax
ffffffff800030a7:	0f 84 df 00 00 00    	je     ffffffff8000318c <x64.registers.CR3.map+0x3ac>
ffffffff800030ad:	4b c7 44 f5 00 07 00 	movq   $0x7,0x0(%r13,%r14,8)
ffffffff800030b4:	00 00 
ffffffff800030b6:	48 b9 ff 0f 00 00 00 	movabs $0xfff0000000000fff,%rcx
ffffffff800030bd:	00 f0 ff 
ffffffff800030c0:	4b 23 4c f5 00       	and    0x0(%r13,%r14,8),%rcx
ffffffff800030c5:	48 89 df             	mov    %rbx,%rdi
ffffffff800030c8:	48 21 d8             	and    %rbx,%rax
ffffffff800030cb:	48 09 c8             	or     %rcx,%rax
ffffffff800030ce:	4b 89 44 f5 00       	mov    %rax,0x0(%r13,%r14,8)
ffffffff800030d3:	48 8b 54 24 18       	mov    0x18(%rsp),%rdx
ffffffff800030d8:	48 8b 4c 24 10       	mov    0x10(%rsp),%rcx
ffffffff800030dd:	4b 8b 44 f5 00       	mov    0x0(%r13,%r14,8),%rax
ffffffff800030e2:	84 c0                	test   %al,%al
ffffffff800030e4:	0f 88 a6 00 00 00    	js     ffffffff80003190 <x64.registers.CR3.map+0x3b0>
ffffffff800030ea:	4b 8b 44 f5 00       	mov    0x0(%r13,%r14,8),%rax
ffffffff800030ef:	a8 01                	test   $0x1,%al
ffffffff800030f1:	0f 84 ee 00 00 00    	je     ffffffff800031e5 <x64.registers.CR3.map+0x405>
ffffffff800030f7:	4b 8b 44 f5 00       	mov    0x0(%r13,%r14,8),%rax
ffffffff800030fc:	4b 8b 44 f5 00       	mov    0x0(%r13,%r14,8),%rax
ffffffff80003101:	48 21 f8             	and    %rdi,%rax
ffffffff80003104:	48 01 c8             	add    %rcx,%rax
ffffffff80003107:	0f 82 94 00 00 00    	jb     ffffffff800031a1 <x64.registers.CR3.map+0x3c1>
ffffffff8000310d:	4c 8b 44 24 20       	mov    0x20(%rsp),%r8
ffffffff80003112:	0f 84 9a 00 00 00    	je     ffffffff800031b2 <x64.registers.CR3.map+0x3d2>
ffffffff80003118:	a8 07                	test   $0x7,%al
ffffffff8000311a:	0f 85 a3 00 00 00    	jne    ffffffff800031c3 <x64.registers.CR3.map+0x3e3>
ffffffff80003120:	41 c1 ec 0c          	shr    $0xc,%r12d
ffffffff80003124:	41 81 e4 ff 01 00 00 	and    $0x1ff,%r12d
ffffffff8000312b:	4a 8b 0c e0          	mov    (%rax,%r12,8),%rcx
ffffffff8000312f:	f6 c1 01             	test   $0x1,%cl
ffffffff80003132:	75 5c                	jne    ffffffff80003190 <x64.registers.CR3.map+0x3b0>
ffffffff80003134:	41 0f b6 0f          	movzbl (%r15),%ecx
ffffffff80003138:	41 0f b6 77 02       	movzbl 0x2(%r15),%esi
ffffffff8000313d:	c1 e6 02             	shl    $0x2,%esi
ffffffff80003140:	8d 0c 4e             	lea    (%rsi,%rcx,2),%ecx
ffffffff80003143:	31 f6                	xor    %esi,%esi
ffffffff80003145:	41 80 7f 01 00       	cmpb   $0x0,0x1(%r15)
ffffffff8000314a:	40 0f 94 c6          	sete   %sil
ffffffff8000314e:	48 c1 e6 3f          	shl    $0x3f,%rsi
ffffffff80003152:	48 01 f1             	add    %rsi,%rcx
ffffffff80003155:	48 83 c1 01          	add    $0x1,%rcx
ffffffff80003159:	4a 89 0c e0          	mov    %rcx,(%rax,%r12,8)
ffffffff8000315d:	48 b9 ff 0f 00 00 00 	movabs $0xfff0000000000fff,%rcx
ffffffff80003164:	00 f0 ff 
ffffffff80003167:	4a 23 0c e0          	and    (%rax,%r12,8),%rcx
ffffffff8000316b:	48 21 fa             	and    %rdi,%rdx
ffffffff8000316e:	48 09 ca             	or     %rcx,%rdx
ffffffff80003171:	4a 89 14 e0          	mov    %rdx,(%rax,%r12,8)
ffffffff80003175:	41 0f b6 40 08       	movzbl 0x8(%r8),%eax
ffffffff8000317a:	f6 d0                	not    %al
ffffffff8000317c:	a8 03                	test   $0x3,%al
ffffffff8000317e:	74 54                	je     ffffffff800031d4 <x64.registers.CR3.map+0x3f4>
ffffffff80003180:	49 8b 38             	mov    (%r8),%rdi
ffffffff80003183:	e8 ac d9 ff ff       	call   ffffffff80000b34 <invalidatePage>
ffffffff80003188:	31 ed                	xor    %ebp,%ebp
ffffffff8000318a:	eb 04                	jmp    ffffffff80003190 <x64.registers.CR3.map+0x3b0>
ffffffff8000318c:	66 bd 03 00          	mov    $0x3,%bp
ffffffff80003190:	89 e8                	mov    %ebp,%eax
ffffffff80003192:	48 83 c4 28          	add    $0x28,%rsp
ffffffff80003196:	5b                   	pop    %rbx
ffffffff80003197:	41 5c                	pop    %r12
ffffffff80003199:	41 5d                	pop    %r13
ffffffff8000319b:	41 5e                	pop    %r14
ffffffff8000319d:	41 5f                	pop    %r15
ffffffff8000319f:	5d                   	pop    %rbp
ffffffff800031a0:	c3                   	ret
ffffffff800031a1:	48 8d 3d a5 59 01 00 	lea    0x159a5(%rip),%rdi        # ffffffff80018b4d <__anon_1411>
ffffffff800031a8:	be 10 00 00 00       	mov    $0x10,%esi
ffffffff800031ad:	e8 de da ff ff       	call   ffffffff80000c90 <main.panic>
ffffffff800031b2:	48 8d 3d 1e 5a 01 00 	lea    0x15a1e(%rip),%rdi        # ffffffff80018bd7 <__anon_1415>
ffffffff800031b9:	be 1e 00 00 00       	mov    $0x1e,%esi
ffffffff800031be:	e8 cd da ff ff       	call   ffffffff80000c90 <main.panic>
ffffffff800031c3:	48 8d 3d 94 59 01 00 	lea    0x15994(%rip),%rdi        # ffffffff80018b5e <__anon_1328>
ffffffff800031ca:	be 13 00 00 00       	mov    $0x13,%esi
ffffffff800031cf:	e8 bc da ff ff       	call   ffffffff80000c90 <main.panic>
ffffffff800031d4:	48 8d 3d 28 5a 01 00 	lea    0x15a28(%rip),%rdi        # ffffffff80018c03 <__anon_3032>
ffffffff800031db:	be 17 00 00 00       	mov    $0x17,%esi
ffffffff800031e0:	e8 ab da ff ff       	call   ffffffff80000c90 <main.panic>
ffffffff800031e5:	48 8d 3d 48 5a 01 00 	lea    0x15a48(%rip),%rdi        # ffffffff80018c34 <__anon_3419>
ffffffff800031ec:	be 18 00 00 00       	mov    $0x18,%esi
ffffffff800031f1:	e8 9a da ff ff       	call   ffffffff80000c90 <main.panic>
ffffffff800031f6:	66 2e 0f 1f 84 00 00 	cs nopw 0x0(%rax,%rax,1)
ffffffff800031fd:	00 00 00 

ffffffff80003200 <x64.registers.CR3.setFlags>:
ffffffff80003200:	53                   	push   %rbx
ffffffff80003201:	44 0f b6 4e 08       	movzbl 0x8(%rsi),%r9d
ffffffff80003206:	41 80 f9 03          	cmp    $0x3,%r9b
ffffffff8000320a:	0f 84 78 02 00 00    	je     ffffffff80003488 <x64.registers.CR3.setFlags+0x288>
ffffffff80003210:	48 81 e7 00 f0 ff ff 	and    $0xfffffffffffff000,%rdi
ffffffff80003217:	48 01 d7             	add    %rdx,%rdi
ffffffff8000321a:	0f 82 35 02 00 00    	jb     ffffffff80003455 <x64.registers.CR3.setFlags+0x255>
ffffffff80003220:	0f 84 40 02 00 00    	je     ffffffff80003466 <x64.registers.CR3.setFlags+0x266>
ffffffff80003226:	40 f6 c7 07          	test   $0x7,%dil
ffffffff8000322a:	0f 85 47 02 00 00    	jne    ffffffff80003477 <x64.registers.CR3.setFlags+0x277>
ffffffff80003230:	48 8b 06             	mov    (%rsi),%rax
ffffffff80003233:	49 89 c2             	mov    %rax,%r10
ffffffff80003236:	49 c1 ea 27          	shr    $0x27,%r10
ffffffff8000323a:	41 81 e2 ff 01 00 00 	and    $0x1ff,%r10d
ffffffff80003241:	45 89 d0             	mov    %r10d,%r8d
ffffffff80003244:	4a f7 04 c7 01 00 00 	testq  $0x1,(%rdi,%r8,8)
ffffffff8000324b:	00 
ffffffff8000324c:	75 04                	jne    ffffffff80003252 <x64.registers.CR3.setFlags+0x52>
ffffffff8000324e:	31 c0                	xor    %eax,%eax
ffffffff80003250:	5b                   	pop    %rbx
ffffffff80003251:	c3                   	ret
ffffffff80003252:	4a 83 0c d7 04       	orq    $0x4,(%rdi,%r10,8)
ffffffff80003257:	49 b8 00 f0 ff ff ff 	movabs $0xffffffffff000,%r8
ffffffff8000325e:	ff 0f 00 
ffffffff80003261:	4a 83 0c d7 02       	orq    $0x2,(%rdi,%r10,8)
ffffffff80003266:	4e 8b 1c d7          	mov    (%rdi,%r10,8),%r11
ffffffff8000326a:	4e 8b 14 d7          	mov    (%rdi,%r10,8),%r10
ffffffff8000326e:	4d 21 c2             	and    %r8,%r10
ffffffff80003271:	49 01 d2             	add    %rdx,%r10
ffffffff80003274:	0f 82 db 01 00 00    	jb     ffffffff80003455 <x64.registers.CR3.setFlags+0x255>
ffffffff8000327a:	0f 84 e6 01 00 00    	je     ffffffff80003466 <x64.registers.CR3.setFlags+0x266>
ffffffff80003280:	41 f6 c2 07          	test   $0x7,%r10b
ffffffff80003284:	0f 85 ed 01 00 00    	jne    ffffffff80003477 <x64.registers.CR3.setFlags+0x277>
ffffffff8000328a:	49 89 c3             	mov    %rax,%r11
ffffffff8000328d:	49 c1 eb 1e          	shr    $0x1e,%r11
ffffffff80003291:	41 81 e3 ff 01 00 00 	and    $0x1ff,%r11d
ffffffff80003298:	44 89 df             	mov    %r11d,%edi
ffffffff8000329b:	49 8b 3c fa          	mov    (%r10,%rdi,8),%rdi
ffffffff8000329f:	41 80 f9 02          	cmp    $0x2,%r9b
ffffffff800032a3:	75 6a                	jne    ffffffff8000330f <x64.registers.CR3.setFlags+0x10f>
ffffffff800032a5:	40 f6 c7 01          	test   $0x1,%dil
ffffffff800032a9:	74 a3                	je     ffffffff8000324e <x64.registers.CR3.setFlags+0x4e>
ffffffff800032ab:	0f b6 01             	movzbl (%rcx),%eax
ffffffff800032ae:	4b 8b 14 da          	mov    (%r10,%r11,8),%rdx
ffffffff800032b2:	48 83 e2 fd          	and    $0xfffffffffffffffd,%rdx
ffffffff800032b6:	48 8d 04 42          	lea    (%rdx,%rax,2),%rax
ffffffff800032ba:	4b 89 04 da          	mov    %rax,(%r10,%r11,8)
ffffffff800032be:	0f b6 41 02          	movzbl 0x2(%rcx),%eax
ffffffff800032c2:	4b 8b 14 da          	mov    (%r10,%r11,8),%rdx
ffffffff800032c6:	48 83 e2 fb          	and    $0xfffffffffffffffb,%rdx
ffffffff800032ca:	48 8d 04 82          	lea    (%rdx,%rax,4),%rax
ffffffff800032ce:	4b 89 04 da          	mov    %rax,(%r10,%r11,8)
ffffffff800032d2:	48 b8 ff ff ff ff ff 	movabs $0x7fffffffffffffff,%rax
ffffffff800032d9:	ff ff 7f 
ffffffff800032dc:	48 8d 50 01          	lea    0x1(%rax),%rdx
ffffffff800032e0:	31 ff                	xor    %edi,%edi
ffffffff800032e2:	80 79 01 00          	cmpb   $0x0,0x1(%rcx)
ffffffff800032e6:	48 0f 44 fa          	cmove  %rdx,%rdi
ffffffff800032ea:	4b 23 04 da          	and    (%r10,%r11,8),%rax
ffffffff800032ee:	48 09 f8             	or     %rdi,%rax
ffffffff800032f1:	4b 89 04 da          	mov    %rax,(%r10,%r11,8)
ffffffff800032f5:	0f b6 46 08          	movzbl 0x8(%rsi),%eax
ffffffff800032f9:	f6 d0                	not    %al
ffffffff800032fb:	a8 03                	test   $0x3,%al
ffffffff800032fd:	0f 84 85 01 00 00    	je     ffffffff80003488 <x64.registers.CR3.setFlags+0x288>
ffffffff80003303:	48 8b 3e             	mov    (%rsi),%rdi
ffffffff80003306:	e8 29 d8 ff ff       	call   ffffffff80000b34 <invalidatePage>
ffffffff8000330b:	b0 01                	mov    $0x1,%al
ffffffff8000330d:	5b                   	pop    %rbx
ffffffff8000330e:	c3                   	ret
ffffffff8000330f:	40 f6 c7 01          	test   $0x1,%dil
ffffffff80003313:	0f 84 35 ff ff ff    	je     ffffffff8000324e <x64.registers.CR3.setFlags+0x4e>
ffffffff80003319:	4b 8b 3c da          	mov    (%r10,%r11,8),%rdi
ffffffff8000331d:	40 84 ff             	test   %dil,%dil
ffffffff80003320:	0f 88 28 ff ff ff    	js     ffffffff8000324e <x64.registers.CR3.setFlags+0x4e>
ffffffff80003326:	4b 83 0c da 04       	orq    $0x4,(%r10,%r11,8)
ffffffff8000332b:	4b 83 0c da 02       	orq    $0x2,(%r10,%r11,8)
ffffffff80003330:	48 bf ff ff ff ff ff 	movabs $0x7fffffffffffffff,%rdi
ffffffff80003337:	ff ff 7f 
ffffffff8000333a:	4b 21 3c da          	and    %rdi,(%r10,%r11,8)
ffffffff8000333e:	4b 8b 1c da          	mov    (%r10,%r11,8),%rbx
ffffffff80003342:	4f 8b 14 da          	mov    (%r10,%r11,8),%r10
ffffffff80003346:	4d 21 c2             	and    %r8,%r10
ffffffff80003349:	49 01 d2             	add    %rdx,%r10
ffffffff8000334c:	0f 82 03 01 00 00    	jb     ffffffff80003455 <x64.registers.CR3.setFlags+0x255>
ffffffff80003352:	0f 84 0e 01 00 00    	je     ffffffff80003466 <x64.registers.CR3.setFlags+0x266>
ffffffff80003358:	41 f6 c2 07          	test   $0x7,%r10b
ffffffff8000335c:	0f 85 15 01 00 00    	jne    ffffffff80003477 <x64.registers.CR3.setFlags+0x277>
ffffffff80003362:	41 89 c3             	mov    %eax,%r11d
ffffffff80003365:	41 c1 eb 15          	shr    $0x15,%r11d
ffffffff80003369:	41 81 e3 ff 01 00 00 	and    $0x1ff,%r11d
ffffffff80003370:	4b f7 04 da 01 00 00 	testq  $0x1,(%r10,%r11,8)
ffffffff80003377:	00 
ffffffff80003378:	0f 84 d0 fe ff ff    	je     ffffffff8000324e <x64.registers.CR3.setFlags+0x4e>
ffffffff8000337e:	41 80 f9 01          	cmp    $0x1,%r9b
ffffffff80003382:	75 45                	jne    ffffffff800033c9 <x64.registers.CR3.setFlags+0x1c9>
ffffffff80003384:	0f b6 01             	movzbl (%rcx),%eax
ffffffff80003387:	4b 8b 14 da          	mov    (%r10,%r11,8),%rdx
ffffffff8000338b:	48 83 e2 fd          	and    $0xfffffffffffffffd,%rdx
ffffffff8000338f:	48 8d 04 42          	lea    (%rdx,%rax,2),%rax
ffffffff80003393:	4b 89 04 da          	mov    %rax,(%r10,%r11,8)
ffffffff80003397:	0f b6 41 02          	movzbl 0x2(%rcx),%eax
ffffffff8000339b:	4b 8b 14 da          	mov    (%r10,%r11,8),%rdx
ffffffff8000339f:	48 83 e2 fb          	and    $0xfffffffffffffffb,%rdx
ffffffff800033a3:	48 8d 04 82          	lea    (%rdx,%rax,4),%rax
ffffffff800033a7:	4b 89 04 da          	mov    %rax,(%r10,%r11,8)
ffffffff800033ab:	48 8d 47 01          	lea    0x1(%rdi),%rax
ffffffff800033af:	31 d2                	xor    %edx,%edx
ffffffff800033b1:	80 79 01 00          	cmpb   $0x0,0x1(%rcx)
ffffffff800033b5:	48 0f 44 d0          	cmove  %rax,%rdx
ffffffff800033b9:	4b 23 3c da          	and    (%r10,%r11,8),%rdi
ffffffff800033bd:	48 09 d7             	or     %rdx,%rdi
ffffffff800033c0:	4b 89 3c da          	mov    %rdi,(%r10,%r11,8)
ffffffff800033c4:	e9 2c ff ff ff       	jmp    ffffffff800032f5 <x64.registers.CR3.setFlags+0xf5>
ffffffff800033c9:	4f 8b 0c da          	mov    (%r10,%r11,8),%r9
ffffffff800033cd:	45 84 c9             	test   %r9b,%r9b
ffffffff800033d0:	0f 88 78 fe ff ff    	js     ffffffff8000324e <x64.registers.CR3.setFlags+0x4e>
ffffffff800033d6:	4b 83 0c da 02       	orq    $0x2,(%r10,%r11,8)
ffffffff800033db:	4b 83 0c da 04       	orq    $0x4,(%r10,%r11,8)
ffffffff800033e0:	4b 21 3c da          	and    %rdi,(%r10,%r11,8)
ffffffff800033e4:	4f 8b 0c da          	mov    (%r10,%r11,8),%r9
ffffffff800033e8:	4f 23 04 da          	and    (%r10,%r11,8),%r8
ffffffff800033ec:	49 01 d0             	add    %rdx,%r8
ffffffff800033ef:	72 64                	jb     ffffffff80003455 <x64.registers.CR3.setFlags+0x255>
ffffffff800033f1:	74 73                	je     ffffffff80003466 <x64.registers.CR3.setFlags+0x266>
ffffffff800033f3:	41 f6 c0 07          	test   $0x7,%r8b
ffffffff800033f7:	75 7e                	jne    ffffffff80003477 <x64.registers.CR3.setFlags+0x277>
ffffffff800033f9:	c1 e8 0c             	shr    $0xc,%eax
ffffffff800033fc:	25 ff 01 00 00       	and    $0x1ff,%eax
ffffffff80003401:	49 f7 04 c0 01 00 00 	testq  $0x1,(%r8,%rax,8)
ffffffff80003408:	00 
ffffffff80003409:	0f 84 3f fe ff ff    	je     ffffffff8000324e <x64.registers.CR3.setFlags+0x4e>
ffffffff8000340f:	0f b6 11             	movzbl (%rcx),%edx
ffffffff80003412:	4d 8b 0c c0          	mov    (%r8,%rax,8),%r9
ffffffff80003416:	49 83 e1 fd          	and    $0xfffffffffffffffd,%r9
ffffffff8000341a:	49 8d 14 51          	lea    (%r9,%rdx,2),%rdx
ffffffff8000341e:	49 89 14 c0          	mov    %rdx,(%r8,%rax,8)
ffffffff80003422:	0f b6 51 02          	movzbl 0x2(%rcx),%edx
ffffffff80003426:	4d 8b 0c c0          	mov    (%r8,%rax,8),%r9
ffffffff8000342a:	49 83 e1 fb          	and    $0xfffffffffffffffb,%r9
ffffffff8000342e:	49 8d 14 91          	lea    (%r9,%rdx,4),%rdx
ffffffff80003432:	49 89 14 c0          	mov    %rdx,(%r8,%rax,8)
ffffffff80003436:	48 8d 57 01          	lea    0x1(%rdi),%rdx
ffffffff8000343a:	45 31 c9             	xor    %r9d,%r9d
ffffffff8000343d:	80 79 01 00          	cmpb   $0x0,0x1(%rcx)
ffffffff80003441:	4c 0f 44 ca          	cmove  %rdx,%r9
ffffffff80003445:	49 23 3c c0          	and    (%r8,%rax,8),%rdi
ffffffff80003449:	4c 09 cf             	or     %r9,%rdi
ffffffff8000344c:	49 89 3c c0          	mov    %rdi,(%r8,%rax,8)
ffffffff80003450:	e9 a0 fe ff ff       	jmp    ffffffff800032f5 <x64.registers.CR3.setFlags+0xf5>
ffffffff80003455:	48 8d 3d f1 56 01 00 	lea    0x156f1(%rip),%rdi        # ffffffff80018b4d <__anon_1411>
ffffffff8000345c:	be 10 00 00 00       	mov    $0x10,%esi
ffffffff80003461:	e8 2a d8 ff ff       	call   ffffffff80000c90 <main.panic>
ffffffff80003466:	48 8d 3d 6a 57 01 00 	lea    0x1576a(%rip),%rdi        # ffffffff80018bd7 <__anon_1415>
ffffffff8000346d:	be 1e 00 00 00       	mov    $0x1e,%esi
ffffffff80003472:	e8 19 d8 ff ff       	call   ffffffff80000c90 <main.panic>
ffffffff80003477:	48 8d 3d e0 56 01 00 	lea    0x156e0(%rip),%rdi        # ffffffff80018b5e <__anon_1328>
ffffffff8000347e:	be 13 00 00 00       	mov    $0x13,%esi
ffffffff80003483:	e8 08 d8 ff ff       	call   ffffffff80000c90 <main.panic>
ffffffff80003488:	48 8d 3d 74 57 01 00 	lea    0x15774(%rip),%rdi        # ffffffff80018c03 <__anon_3032>
ffffffff8000348f:	be 17 00 00 00       	mov    $0x17,%esi
ffffffff80003494:	e8 f7 d7 ff ff       	call   ffffffff80000c90 <main.panic>
ffffffff80003499:	0f 1f 80 00 00 00 00 	nopl   0x0(%rax)

ffffffff800034a0 <io.GenericWriter(serial-log.Context,error{},(function 'serial_print')).typeErasedWriteFn>:
ffffffff800034a0:	48 85 c9             	test   %rcx,%rcx
ffffffff800034a3:	74 1a                	je     ffffffff800034bf <io.GenericWriter(serial-log.Context,error{},(function 'serial_print')).typeErasedWriteFn+0x1f>
ffffffff800034a5:	48 89 d6             	mov    %rdx,%rsi
ffffffff800034a8:	45 31 c0             	xor    %r8d,%r8d
ffffffff800034ab:	66 ba f8 03          	mov    $0x3f8,%dx
ffffffff800034af:	90                   	nop
ffffffff800034b0:	42 0f b6 04 06       	movzbl (%rsi,%r8,1),%eax
ffffffff800034b5:	ee                   	out    %al,(%dx)
ffffffff800034b6:	49 83 c0 01          	add    $0x1,%r8
ffffffff800034ba:	4c 39 c1             	cmp    %r8,%rcx
ffffffff800034bd:	75 f1                	jne    ffffffff800034b0 <io.GenericWriter(serial-log.Context,error{},(function 'serial_print')).typeErasedWriteFn+0x10>
ffffffff800034bf:	48 89 0f             	mov    %rcx,(%rdi)
ffffffff800034c2:	66 c7 47 08 00 00    	movw   $0x0,0x8(%rdi)
ffffffff800034c8:	48 89 f8             	mov    %rdi,%rax
ffffffff800034cb:	c3                   	ret
ffffffff800034cc:	0f 1f 40 00          	nopl   0x0(%rax)

ffffffff800034d0 <io.Writer.print__anon_2200>:
ffffffff800034d0:	55                   	push   %rbp
ffffffff800034d1:	41 57                	push   %r15
ffffffff800034d3:	41 56                	push   %r14
ffffffff800034d5:	41 55                	push   %r13
ffffffff800034d7:	41 54                	push   %r12
ffffffff800034d9:	53                   	push   %rbx
ffffffff800034da:	48 83 ec 18          	sub    $0x18,%rsp
ffffffff800034de:	49 89 f7             	mov    %rsi,%r15
ffffffff800034e1:	49 89 fe             	mov    %rdi,%r14
ffffffff800034e4:	4c 8b 27             	mov    (%rdi),%r12
ffffffff800034e7:	48 8b 6f 08          	mov    0x8(%rdi),%rbp
ffffffff800034eb:	31 c9                	xor    %ecx,%ecx
ffffffff800034ed:	48 8d 1d 22 58 01 00 	lea    0x15822(%rip),%rbx        # ffffffff80018d16 <__anon_3256>
ffffffff800034f4:	4c 8d 6c 24 08       	lea    0x8(%rsp),%r13
ffffffff800034f9:	0f 1f 80 00 00 00 00 	nopl   0x0(%rax)
ffffffff80003500:	48 85 c9             	test   %rcx,%rcx
ffffffff80003503:	75 21                	jne    ffffffff80003526 <io.Writer.print__anon_2200+0x56>
ffffffff80003505:	b9 01 00 00 00       	mov    $0x1,%ecx
ffffffff8000350a:	4c 89 ef             	mov    %r13,%rdi
ffffffff8000350d:	4c 89 e6             	mov    %r12,%rsi
ffffffff80003510:	48 89 da             	mov    %rbx,%rdx
ffffffff80003513:	ff d5                	call   *%rbp
ffffffff80003515:	48 8b 4c 24 08       	mov    0x8(%rsp),%rcx
ffffffff8000351a:	0f b7 44 24 10       	movzwl 0x10(%rsp),%eax
ffffffff8000351f:	66 85 c0             	test   %ax,%ax
ffffffff80003522:	74 dc                	je     ffffffff80003500 <io.Writer.print__anon_2200+0x30>
ffffffff80003524:	eb 25                	jmp    ffffffff8000354b <io.Writer.print__anon_2200+0x7b>
ffffffff80003526:	48 83 f9 01          	cmp    $0x1,%rcx
ffffffff8000352a:	0f 85 00 01 00 00    	jne    ffffffff80003630 <io.Writer.print__anon_2200+0x160>
ffffffff80003530:	49 8b 3f             	mov    (%r15),%rdi
ffffffff80003533:	49 8b 77 08          	mov    0x8(%r15),%rsi
ffffffff80003537:	48 8d 15 c2 55 01 00 	lea    0x155c2(%rip),%rdx        # ffffffff80018b00 <__anon_5249+0x9>
ffffffff8000353e:	4c 89 f1             	mov    %r14,%rcx
ffffffff80003541:	e8 3a 04 00 00       	call   ffffffff80003980 <fmt.formatBuf__anon_2525>
ffffffff80003546:	66 85 c0             	test   %ax,%ax
ffffffff80003549:	74 0f                	je     ffffffff8000355a <io.Writer.print__anon_2200+0x8a>
ffffffff8000354b:	48 83 c4 18          	add    $0x18,%rsp
ffffffff8000354f:	5b                   	pop    %rbx
ffffffff80003550:	41 5c                	pop    %r12
ffffffff80003552:	41 5d                	pop    %r13
ffffffff80003554:	41 5e                	pop    %r14
ffffffff80003556:	41 5f                	pop    %r15
ffffffff80003558:	5d                   	pop    %rbp
ffffffff80003559:	c3                   	ret
ffffffff8000355a:	4d 8b 3e             	mov    (%r14),%r15
ffffffff8000355d:	4d 8b 6e 08          	mov    0x8(%r14),%r13
ffffffff80003561:	31 ed                	xor    %ebp,%ebp
ffffffff80003563:	4c 8d 64 24 08       	lea    0x8(%rsp),%r12
ffffffff80003568:	0f 1f 84 00 00 00 00 	nopl   0x0(%rax,%rax,1)
ffffffff8000356f:	00 
ffffffff80003570:	48 83 fd 03          	cmp    $0x3,%rbp
ffffffff80003574:	0f 87 b6 00 00 00    	ja     ffffffff80003630 <io.Writer.print__anon_2200+0x160>
ffffffff8000357a:	48 8d 14 2b          	lea    (%rbx,%rbp,1),%rdx
ffffffff8000357e:	48 83 c2 04          	add    $0x4,%rdx
ffffffff80003582:	48 89 e9             	mov    %rbp,%rcx
ffffffff80003585:	48 83 f1 03          	xor    $0x3,%rcx
ffffffff80003589:	4c 89 e7             	mov    %r12,%rdi
ffffffff8000358c:	4c 89 fe             	mov    %r15,%rsi
ffffffff8000358f:	41 ff d5             	call   *%r13
ffffffff80003592:	0f b7 44 24 10       	movzwl 0x10(%rsp),%eax
ffffffff80003597:	66 85 c0             	test   %ax,%ax
ffffffff8000359a:	75 af                	jne    ffffffff8000354b <io.Writer.print__anon_2200+0x7b>
ffffffff8000359c:	48 03 6c 24 08       	add    0x8(%rsp),%rbp
ffffffff800035a1:	0f 82 9a 00 00 00    	jb     ffffffff80003641 <io.Writer.print__anon_2200+0x171>
ffffffff800035a7:	48 83 fd 03          	cmp    $0x3,%rbp
ffffffff800035ab:	75 c3                	jne    ffffffff80003570 <io.Writer.print__anon_2200+0xa0>
ffffffff800035ad:	c6 44 24 0c 00       	movb   $0x0,0xc(%rsp)
ffffffff800035b2:	c7 44 24 08 6d 61 69 	movl   $0x6e69616d,0x8(%rsp)
ffffffff800035b9:	6e 
ffffffff800035ba:	48 8d 15 3f 55 01 00 	lea    0x1553f(%rip),%rdx        # ffffffff80018b00 <__anon_5249+0x9>
ffffffff800035c1:	48 8d 7c 24 08       	lea    0x8(%rsp),%rdi
ffffffff800035c6:	be 04 00 00 00       	mov    $0x4,%esi
ffffffff800035cb:	4c 89 f1             	mov    %r14,%rcx
ffffffff800035ce:	e8 ad 03 00 00       	call   ffffffff80003980 <fmt.formatBuf__anon_2525>
ffffffff800035d3:	66 85 c0             	test   %ax,%ax
ffffffff800035d6:	0f 85 6f ff ff ff    	jne    ffffffff8000354b <io.Writer.print__anon_2200+0x7b>
ffffffff800035dc:	4d 8b 3e             	mov    (%r14),%r15
ffffffff800035df:	4d 8b 66 08          	mov    0x8(%r14),%r12
ffffffff800035e3:	45 31 ed             	xor    %r13d,%r13d
ffffffff800035e6:	4c 8d 74 24 08       	lea    0x8(%rsp),%r14
ffffffff800035eb:	0f 1f 44 00 00       	nopl   0x0(%rax,%rax,1)
ffffffff800035f0:	49 83 fd 03          	cmp    $0x3,%r13
ffffffff800035f4:	77 3a                	ja     ffffffff80003630 <io.Writer.print__anon_2200+0x160>
ffffffff800035f6:	4a 8d 14 2b          	lea    (%rbx,%r13,1),%rdx
ffffffff800035fa:	48 83 c2 0a          	add    $0xa,%rdx
ffffffff800035fe:	4c 89 e9             	mov    %r13,%rcx
ffffffff80003601:	48 83 f1 03          	xor    $0x3,%rcx
ffffffff80003605:	4c 89 f7             	mov    %r14,%rdi
ffffffff80003608:	4c 89 fe             	mov    %r15,%rsi
ffffffff8000360b:	41 ff d4             	call   *%r12
ffffffff8000360e:	0f b7 44 24 10       	movzwl 0x10(%rsp),%eax
ffffffff80003613:	66 85 c0             	test   %ax,%ax
ffffffff80003616:	0f 85 2f ff ff ff    	jne    ffffffff8000354b <io.Writer.print__anon_2200+0x7b>
ffffffff8000361c:	4c 03 6c 24 08       	add    0x8(%rsp),%r13
ffffffff80003621:	72 1e                	jb     ffffffff80003641 <io.Writer.print__anon_2200+0x171>
ffffffff80003623:	31 c0                	xor    %eax,%eax
ffffffff80003625:	49 83 fd 03          	cmp    $0x3,%r13
ffffffff80003629:	75 c5                	jne    ffffffff800035f0 <io.Writer.print__anon_2200+0x120>
ffffffff8000362b:	e9 1b ff ff ff       	jmp    ffffffff8000354b <io.Writer.print__anon_2200+0x7b>
ffffffff80003630:	48 8d 3d f1 54 01 00 	lea    0x154f1(%rip),%rdi        # ffffffff80018b28 <__anon_1277>
ffffffff80003637:	be 24 00 00 00       	mov    $0x24,%esi
ffffffff8000363c:	e8 4f d6 ff ff       	call   ffffffff80000c90 <main.panic>
ffffffff80003641:	48 8d 3d 05 55 01 00 	lea    0x15505(%rip),%rdi        # ffffffff80018b4d <__anon_1411>
ffffffff80003648:	be 10 00 00 00       	mov    $0x10,%esi
ffffffff8000364d:	e8 3e d6 ff ff       	call   ffffffff80000c90 <main.panic>
ffffffff80003652:	66 2e 0f 1f 84 00 00 	cs nopw 0x0(%rax,%rax,1)
ffffffff80003659:	00 00 00 
ffffffff8000365c:	0f 1f 40 00          	nopl   0x0(%rax)

ffffffff80003660 <pageFaultHandler>:
ffffffff80003660:	50                   	push   %rax
ffffffff80003661:	41 53                	push   %r11
ffffffff80003663:	41 52                	push   %r10
ffffffff80003665:	41 51                	push   %r9
ffffffff80003667:	41 50                	push   %r8
ffffffff80003669:	57                   	push   %rdi
ffffffff8000366a:	56                   	push   %rsi
ffffffff8000366b:	52                   	push   %rdx
ffffffff8000366c:	51                   	push   %rcx
ffffffff8000366d:	50                   	push   %rax
ffffffff8000366e:	48 83 ec 18          	sub    $0x18,%rsp
ffffffff80003672:	fc                   	cld
ffffffff80003673:	48 8b 4c 24 68       	mov    0x68(%rsp),%rcx
ffffffff80003678:	0f 20 d0             	mov    %cr2,%rax
ffffffff8000367b:	48 89 44 24 08       	mov    %rax,0x8(%rsp)
ffffffff80003680:	48 89 4c 24 10       	mov    %rcx,0x10(%rsp)
ffffffff80003685:	48 8d 7c 24 08       	lea    0x8(%rsp),%rdi
ffffffff8000368a:	e8 31 11 00 00       	call   ffffffff800047c0 <log.scoped(.idt).err__anon_2217>
ffffffff8000368f:	90                   	nop
ffffffff80003690:	f4                   	hlt
ffffffff80003691:	eb fd                	jmp    ffffffff80003690 <pageFaultHandler+0x30>
ffffffff80003693:	66 2e 0f 1f 84 00 00 	cs nopw 0x0(%rax,%rax,1)
ffffffff8000369a:	00 00 00 
ffffffff8000369d:	0f 1f 00             	nopl   (%rax)

ffffffff800036a0 <breakpointHandler>:
ffffffff800036a0:	41 53                	push   %r11
ffffffff800036a2:	41 52                	push   %r10
ffffffff800036a4:	41 51                	push   %r9
ffffffff800036a6:	41 50                	push   %r8
ffffffff800036a8:	57                   	push   %rdi
ffffffff800036a9:	56                   	push   %rsi
ffffffff800036aa:	52                   	push   %rdx
ffffffff800036ab:	51                   	push   %rcx
ffffffff800036ac:	50                   	push   %rax
ffffffff800036ad:	48 83 ec 10          	sub    $0x10,%rsp
ffffffff800036b1:	fc                   	cld
ffffffff800036b2:	48 8d 05 19 55 01 00 	lea    0x15519(%rip),%rax        # ffffffff80018bd2 <__anon_3536>
ffffffff800036b9:	48 89 04 24          	mov    %rax,(%rsp)
ffffffff800036bd:	48 c7 44 24 08 04 00 	movq   $0x4,0x8(%rsp)
ffffffff800036c4:	00 00 
ffffffff800036c6:	48 8d 3d a3 79 01 00 	lea    0x179a3(%rip),%rdi        # ffffffff8001b070 <x64.tss.tss_iopb+0x70>
ffffffff800036cd:	48 89 e6             	mov    %rsp,%rsi
ffffffff800036d0:	e8 7b 0d 00 00       	call   ffffffff80004450 <io.Writer.print__anon_2529>
ffffffff800036d5:	66 85 c0             	test   %ax,%ax
ffffffff800036d8:	75 3b                	jne    ffffffff80003715 <breakpointHandler+0x75>
ffffffff800036da:	66 ba f8 03          	mov    $0x3f8,%dx
ffffffff800036de:	b0 62                	mov    $0x62,%al
ffffffff800036e0:	ee                   	out    %al,(%dx)
ffffffff800036e1:	b0 72                	mov    $0x72,%al
ffffffff800036e3:	ee                   	out    %al,(%dx)
ffffffff800036e4:	b0 65                	mov    $0x65,%al
ffffffff800036e6:	ee                   	out    %al,(%dx)
ffffffff800036e7:	b0 61                	mov    $0x61,%al
ffffffff800036e9:	ee                   	out    %al,(%dx)
ffffffff800036ea:	b0 6b                	mov    $0x6b,%al
ffffffff800036ec:	ee                   	out    %al,(%dx)
ffffffff800036ed:	b0 70                	mov    $0x70,%al
ffffffff800036ef:	ee                   	out    %al,(%dx)
ffffffff800036f0:	b0 6f                	mov    $0x6f,%al
ffffffff800036f2:	ee                   	out    %al,(%dx)
ffffffff800036f3:	b0 69                	mov    $0x69,%al
ffffffff800036f5:	ee                   	out    %al,(%dx)
ffffffff800036f6:	b0 6e                	mov    $0x6e,%al
ffffffff800036f8:	ee                   	out    %al,(%dx)
ffffffff800036f9:	b0 74                	mov    $0x74,%al
ffffffff800036fb:	ee                   	out    %al,(%dx)
ffffffff800036fc:	b0 21                	mov    $0x21,%al
ffffffff800036fe:	ee                   	out    %al,(%dx)
ffffffff800036ff:	b0 0a                	mov    $0xa,%al
ffffffff80003701:	ee                   	out    %al,(%dx)
ffffffff80003702:	48 83 c4 10          	add    $0x10,%rsp
ffffffff80003706:	58                   	pop    %rax
ffffffff80003707:	59                   	pop    %rcx
ffffffff80003708:	5a                   	pop    %rdx
ffffffff80003709:	5e                   	pop    %rsi
ffffffff8000370a:	5f                   	pop    %rdi
ffffffff8000370b:	41 58                	pop    %r8
ffffffff8000370d:	41 59                	pop    %r9
ffffffff8000370f:	41 5a                	pop    %r10
ffffffff80003711:	41 5b                	pop    %r11
ffffffff80003713:	48 cf                	iretq
ffffffff80003715:	48 8d 3d 05 55 01 00 	lea    0x15505(%rip),%rdi        # ffffffff80018c21 <__anon_3293>
ffffffff8000371c:	be 12 00 00 00       	mov    $0x12,%esi
ffffffff80003721:	e8 6a d5 ff ff       	call   ffffffff80000c90 <main.panic>
ffffffff80003726:	66 2e 0f 1f 84 00 00 	cs nopw 0x0(%rax,%rax,1)
ffffffff8000372d:	00 00 00 

ffffffff80003730 <generalProtectionHandler>:
ffffffff80003730:	41 53                	push   %r11
ffffffff80003732:	41 52                	push   %r10
ffffffff80003734:	41 51                	push   %r9
ffffffff80003736:	41 50                	push   %r8
ffffffff80003738:	57                   	push   %rdi
ffffffff80003739:	56                   	push   %rsi
ffffffff8000373a:	52                   	push   %rdx
ffffffff8000373b:	51                   	push   %rcx
ffffffff8000373c:	50                   	push   %rax
ffffffff8000373d:	48 83 ec 10          	sub    $0x10,%rsp
ffffffff80003741:	fc                   	cld
ffffffff80003742:	48 8d 05 89 54 01 00 	lea    0x15489(%rip),%rax        # ffffffff80018bd2 <__anon_3536>
ffffffff80003749:	48 89 04 24          	mov    %rax,(%rsp)
ffffffff8000374d:	48 c7 44 24 08 04 00 	movq   $0x4,0x8(%rsp)
ffffffff80003754:	00 00 
ffffffff80003756:	48 8d 3d 13 79 01 00 	lea    0x17913(%rip),%rdi        # ffffffff8001b070 <x64.tss.tss_iopb+0x70>
ffffffff8000375d:	48 89 e6             	mov    %rsp,%rsi
ffffffff80003760:	e8 eb 0c 00 00       	call   ffffffff80004450 <io.Writer.print__anon_2529>
ffffffff80003765:	66 85 c0             	test   %ax,%ax
ffffffff80003768:	75 59                	jne    ffffffff800037c3 <generalProtectionHandler+0x93>
ffffffff8000376a:	66 ba f8 03          	mov    $0x3f8,%dx
ffffffff8000376e:	b0 47                	mov    $0x47,%al
ffffffff80003770:	ee                   	out    %al,(%dx)
ffffffff80003771:	b0 65                	mov    $0x65,%al
ffffffff80003773:	ee                   	out    %al,(%dx)
ffffffff80003774:	b0 6e                	mov    $0x6e,%al
ffffffff80003776:	ee                   	out    %al,(%dx)
ffffffff80003777:	b0 65                	mov    $0x65,%al
ffffffff80003779:	ee                   	out    %al,(%dx)
ffffffff8000377a:	b0 72                	mov    $0x72,%al
ffffffff8000377c:	ee                   	out    %al,(%dx)
ffffffff8000377d:	b0 61                	mov    $0x61,%al
ffffffff8000377f:	ee                   	out    %al,(%dx)
ffffffff80003780:	b0 6c                	mov    $0x6c,%al
ffffffff80003782:	ee                   	out    %al,(%dx)
ffffffff80003783:	b0 20                	mov    $0x20,%al
ffffffff80003785:	ee                   	out    %al,(%dx)
ffffffff80003786:	b0 50                	mov    $0x50,%al
ffffffff80003788:	ee                   	out    %al,(%dx)
ffffffff80003789:	b0 72                	mov    $0x72,%al
ffffffff8000378b:	ee                   	out    %al,(%dx)
ffffffff8000378c:	b0 6f                	mov    $0x6f,%al
ffffffff8000378e:	ee                   	out    %al,(%dx)
ffffffff8000378f:	b0 74                	mov    $0x74,%al
ffffffff80003791:	ee                   	out    %al,(%dx)
ffffffff80003792:	b0 65                	mov    $0x65,%al
ffffffff80003794:	ee                   	out    %al,(%dx)
ffffffff80003795:	b0 63                	mov    $0x63,%al
ffffffff80003797:	ee                   	out    %al,(%dx)
ffffffff80003798:	b0 74                	mov    $0x74,%al
ffffffff8000379a:	ee                   	out    %al,(%dx)
ffffffff8000379b:	b0 69                	mov    $0x69,%al
ffffffff8000379d:	ee                   	out    %al,(%dx)
ffffffff8000379e:	b0 6f                	mov    $0x6f,%al
ffffffff800037a0:	ee                   	out    %al,(%dx)
ffffffff800037a1:	b0 6e                	mov    $0x6e,%al
ffffffff800037a3:	ee                   	out    %al,(%dx)
ffffffff800037a4:	b0 20                	mov    $0x20,%al
ffffffff800037a6:	ee                   	out    %al,(%dx)
ffffffff800037a7:	b0 46                	mov    $0x46,%al
ffffffff800037a9:	ee                   	out    %al,(%dx)
ffffffff800037aa:	b0 61                	mov    $0x61,%al
ffffffff800037ac:	ee                   	out    %al,(%dx)
ffffffff800037ad:	b0 75                	mov    $0x75,%al
ffffffff800037af:	ee                   	out    %al,(%dx)
ffffffff800037b0:	b0 6c                	mov    $0x6c,%al
ffffffff800037b2:	ee                   	out    %al,(%dx)
ffffffff800037b3:	b0 74                	mov    $0x74,%al
ffffffff800037b5:	ee                   	out    %al,(%dx)
ffffffff800037b6:	b0 21                	mov    $0x21,%al
ffffffff800037b8:	ee                   	out    %al,(%dx)
ffffffff800037b9:	b0 0a                	mov    $0xa,%al
ffffffff800037bb:	ee                   	out    %al,(%dx)
ffffffff800037bc:	0f 1f 40 00          	nopl   0x0(%rax)
ffffffff800037c0:	f4                   	hlt
ffffffff800037c1:	eb fd                	jmp    ffffffff800037c0 <generalProtectionHandler+0x90>
ffffffff800037c3:	48 8d 3d 57 54 01 00 	lea    0x15457(%rip),%rdi        # ffffffff80018c21 <__anon_3293>
ffffffff800037ca:	be 12 00 00 00       	mov    $0x12,%esi
ffffffff800037cf:	e8 bc d4 ff ff       	call   ffffffff80000c90 <main.panic>
ffffffff800037d4:	66 2e 0f 1f 84 00 00 	cs nopw 0x0(%rax,%rax,1)
ffffffff800037db:	00 00 00 
ffffffff800037de:	66 90                	xchg   %ax,%ax

ffffffff800037e0 <doubleFaultHandler>:
ffffffff800037e0:	41 53                	push   %r11
ffffffff800037e2:	41 52                	push   %r10
ffffffff800037e4:	41 51                	push   %r9
ffffffff800037e6:	41 50                	push   %r8
ffffffff800037e8:	57                   	push   %rdi
ffffffff800037e9:	56                   	push   %rsi
ffffffff800037ea:	52                   	push   %rdx
ffffffff800037eb:	51                   	push   %rcx
ffffffff800037ec:	50                   	push   %rax
ffffffff800037ed:	48 83 ec 10          	sub    $0x10,%rsp
ffffffff800037f1:	fc                   	cld
ffffffff800037f2:	48 8d 05 d9 53 01 00 	lea    0x153d9(%rip),%rax        # ffffffff80018bd2 <__anon_3536>
ffffffff800037f9:	48 89 04 24          	mov    %rax,(%rsp)
ffffffff800037fd:	48 c7 44 24 08 04 00 	movq   $0x4,0x8(%rsp)
ffffffff80003804:	00 00 
ffffffff80003806:	48 8d 3d 63 78 01 00 	lea    0x17863(%rip),%rdi        # ffffffff8001b070 <x64.tss.tss_iopb+0x70>
ffffffff8000380d:	48 89 e6             	mov    %rsp,%rsi
ffffffff80003810:	e8 3b 0c 00 00       	call   ffffffff80004450 <io.Writer.print__anon_2529>
ffffffff80003815:	66 85 c0             	test   %ax,%ax
ffffffff80003818:	75 39                	jne    ffffffff80003853 <doubleFaultHandler+0x73>
ffffffff8000381a:	66 ba f8 03          	mov    $0x3f8,%dx
ffffffff8000381e:	b0 44                	mov    $0x44,%al
ffffffff80003820:	ee                   	out    %al,(%dx)
ffffffff80003821:	b0 6f                	mov    $0x6f,%al
ffffffff80003823:	ee                   	out    %al,(%dx)
ffffffff80003824:	b0 75                	mov    $0x75,%al
ffffffff80003826:	ee                   	out    %al,(%dx)
ffffffff80003827:	b0 62                	mov    $0x62,%al
ffffffff80003829:	ee                   	out    %al,(%dx)
ffffffff8000382a:	b0 6c                	mov    $0x6c,%al
ffffffff8000382c:	ee                   	out    %al,(%dx)
ffffffff8000382d:	b0 65                	mov    $0x65,%al
ffffffff8000382f:	ee                   	out    %al,(%dx)
ffffffff80003830:	b0 20                	mov    $0x20,%al
ffffffff80003832:	ee                   	out    %al,(%dx)
ffffffff80003833:	b0 46                	mov    $0x46,%al
ffffffff80003835:	ee                   	out    %al,(%dx)
ffffffff80003836:	b0 61                	mov    $0x61,%al
ffffffff80003838:	ee                   	out    %al,(%dx)
ffffffff80003839:	b0 75                	mov    $0x75,%al
ffffffff8000383b:	ee                   	out    %al,(%dx)
ffffffff8000383c:	b0 6c                	mov    $0x6c,%al
ffffffff8000383e:	ee                   	out    %al,(%dx)
ffffffff8000383f:	b0 74                	mov    $0x74,%al
ffffffff80003841:	ee                   	out    %al,(%dx)
ffffffff80003842:	b0 21                	mov    $0x21,%al
ffffffff80003844:	ee                   	out    %al,(%dx)
ffffffff80003845:	b0 0a                	mov    $0xa,%al
ffffffff80003847:	ee                   	out    %al,(%dx)
ffffffff80003848:	0f 1f 84 00 00 00 00 	nopl   0x0(%rax,%rax,1)
ffffffff8000384f:	00 
ffffffff80003850:	f4                   	hlt
ffffffff80003851:	eb fd                	jmp    ffffffff80003850 <doubleFaultHandler+0x70>
ffffffff80003853:	48 8d 3d c7 53 01 00 	lea    0x153c7(%rip),%rdi        # ffffffff80018c21 <__anon_3293>
ffffffff8000385a:	be 12 00 00 00       	mov    $0x12,%esi
ffffffff8000385f:	e8 2c d4 ff ff       	call   ffffffff80000c90 <main.panic>
ffffffff80003864:	66 2e 0f 1f 84 00 00 	cs nopw 0x0(%rax,%rax,1)
ffffffff8000386b:	00 00 00 
ffffffff8000386e:	66 90                	xchg   %ax,%ax

ffffffff80003870 <fmt.formatType__anon_2524>:
ffffffff80003870:	48 83 ec 48          	sub    $0x48,%rsp
ffffffff80003874:	48 89 f1             	mov    %rsi,%rcx
ffffffff80003877:	48 b8 aa aa aa aa aa 	movabs $0xaaaaaaaaaaaaaaaa,%rax
ffffffff8000387e:	aa aa aa 
ffffffff80003881:	48 89 44 24 38       	mov    %rax,0x38(%rsp)
ffffffff80003886:	48 89 44 24 30       	mov    %rax,0x30(%rsp)
ffffffff8000388b:	48 89 44 24 28       	mov    %rax,0x28(%rsp)
ffffffff80003890:	48 89 44 24 20       	mov    %rax,0x20(%rsp)
ffffffff80003895:	48 89 44 24 18       	mov    %rax,0x18(%rsp)
ffffffff8000389a:	48 89 44 24 10       	mov    %rax,0x10(%rsp)
ffffffff8000389f:	48 89 44 24 08       	mov    %rax,0x8(%rsp)
ffffffff800038a4:	48 89 04 24          	mov    %rax,(%rsp)
ffffffff800038a8:	c6 44 24 40 aa       	movb   $0xaa,0x40(%rsp)
ffffffff800038ad:	41 b8 41 00 00 00    	mov    $0x41,%r8d
ffffffff800038b3:	48 83 ff 64          	cmp    $0x64,%rdi
ffffffff800038b7:	72 6b                	jb     ffffffff80003924 <fmt.formatType__anon_2524+0xb4>
ffffffff800038b9:	be 41 00 00 00       	mov    $0x41,%esi
ffffffff800038be:	4c 8d 0d 88 53 01 00 	lea    0x15388(%rip),%r9        # ffffffff80018c4d <__anon_6068>
ffffffff800038c5:	49 ba c3 f5 28 5c 8f 	movabs $0x28f5c28f5c28f5c3,%r10
ffffffff800038cc:	c2 f5 28 
ffffffff800038cf:	90                   	nop
ffffffff800038d0:	49 89 f0             	mov    %rsi,%r8
ffffffff800038d3:	49 83 e8 02          	sub    $0x2,%r8
ffffffff800038d7:	0f 82 83 00 00 00    	jb     ffffffff80003960 <fmt.formatType__anon_2524+0xf0>
ffffffff800038dd:	48 89 f8             	mov    %rdi,%rax
ffffffff800038e0:	48 c1 e8 02          	shr    $0x2,%rax
ffffffff800038e4:	49 f7 e2             	mul    %r10
ffffffff800038e7:	48 c1 ea 02          	shr    $0x2,%rdx
ffffffff800038eb:	48 6b c2 64          	imul   $0x64,%rdx,%rax
ffffffff800038ef:	49 89 fb             	mov    %rdi,%r11
ffffffff800038f2:	49 29 c3             	sub    %rax,%r11
ffffffff800038f5:	43 0f b7 04 59       	movzwl (%r9,%r11,2),%eax
ffffffff800038fa:	66 42 89 04 04       	mov    %ax,(%rsp,%r8,1)
ffffffff800038ff:	48 83 c6 fe          	add    $0xfffffffffffffffe,%rsi
ffffffff80003903:	48 81 ff 0f 27 00 00 	cmp    $0x270f,%rdi
ffffffff8000390a:	48 89 d7             	mov    %rdx,%rdi
ffffffff8000390d:	77 c1                	ja     ffffffff800038d0 <fmt.formatType__anon_2524+0x60>
ffffffff8000390f:	48 83 fa 0a          	cmp    $0xa,%rdx
ffffffff80003913:	73 18                	jae    ffffffff8000392d <fmt.formatType__anon_2524+0xbd>
ffffffff80003915:	49 83 e8 01          	sub    $0x1,%r8
ffffffff80003919:	72 45                	jb     ffffffff80003960 <fmt.formatType__anon_2524+0xf0>
ffffffff8000391b:	80 ca 30             	or     $0x30,%dl
ffffffff8000391e:	42 88 14 04          	mov    %dl,(%rsp,%r8,1)
ffffffff80003922:	eb 1f                	jmp    ffffffff80003943 <fmt.formatType__anon_2524+0xd3>
ffffffff80003924:	48 89 fa             	mov    %rdi,%rdx
ffffffff80003927:	48 83 fa 0a          	cmp    $0xa,%rdx
ffffffff8000392b:	72 e8                	jb     ffffffff80003915 <fmt.formatType__anon_2524+0xa5>
ffffffff8000392d:	49 83 e8 02          	sub    $0x2,%r8
ffffffff80003931:	72 2d                	jb     ffffffff80003960 <fmt.formatType__anon_2524+0xf0>
ffffffff80003933:	48 8d 05 13 53 01 00 	lea    0x15313(%rip),%rax        # ffffffff80018c4d <__anon_6068>
ffffffff8000393a:	0f b7 04 50          	movzwl (%rax,%rdx,2),%eax
ffffffff8000393e:	66 42 89 04 04       	mov    %ax,(%rsp,%r8,1)
ffffffff80003943:	be 41 00 00 00       	mov    $0x41,%esi
ffffffff80003948:	4c 29 c6             	sub    %r8,%rsi
ffffffff8000394b:	4a 8d 3c 04          	lea    (%rsp,%r8,1),%rdi
ffffffff8000394f:	48 8d 15 aa 51 01 00 	lea    0x151aa(%rip),%rdx        # ffffffff80018b00 <__anon_5249+0x9>
ffffffff80003956:	e8 25 00 00 00       	call   ffffffff80003980 <fmt.formatBuf__anon_2525>
ffffffff8000395b:	48 83 c4 48          	add    $0x48,%rsp
ffffffff8000395f:	c3                   	ret
ffffffff80003960:	48 8d 3d e6 51 01 00 	lea    0x151e6(%rip),%rdi        # ffffffff80018b4d <__anon_1411>
ffffffff80003967:	be 10 00 00 00       	mov    $0x10,%esi
ffffffff8000396c:	e8 1f d3 ff ff       	call   ffffffff80000c90 <main.panic>
ffffffff80003971:	66 2e 0f 1f 84 00 00 	cs nopw 0x0(%rax,%rax,1)
ffffffff80003978:	00 00 00 
ffffffff8000397b:	0f 1f 44 00 00       	nopl   0x0(%rax,%rax,1)

ffffffff80003980 <fmt.formatBuf__anon_2525>:
ffffffff80003980:	55                   	push   %rbp
ffffffff80003981:	41 57                	push   %r15
ffffffff80003983:	41 56                	push   %r14
ffffffff80003985:	41 55                	push   %r13
ffffffff80003987:	41 54                	push   %r12
ffffffff80003989:	53                   	push   %rbx
ffffffff8000398a:	48 83 ec 48          	sub    $0x48,%rsp
ffffffff8000398e:	48 89 f3             	mov    %rsi,%rbx
ffffffff80003991:	49 89 fe             	mov    %rdi,%r14
ffffffff80003994:	80 7a 18 00          	cmpb   $0x0,0x18(%rdx)
ffffffff80003998:	0f 84 87 04 00 00    	je     ffffffff80003e25 <fmt.formatBuf__anon_2525+0x4a5>
ffffffff8000399e:	4c 8b 5a 10          	mov    0x10(%rdx),%r11
ffffffff800039a2:	48 85 db             	test   %rbx,%rbx
ffffffff800039a5:	48 89 4c 24 38       	mov    %rcx,0x38(%rsp)
ffffffff800039aa:	0f 84 cc 04 00 00    	je     ffffffff80003e7c <fmt.formatBuf__anon_2525+0x4fc>
ffffffff800039b0:	48 89 54 24 28       	mov    %rdx,0x28(%rsp)
ffffffff800039b5:	4c 89 5c 24 20       	mov    %r11,0x20(%rsp)
ffffffff800039ba:	49 bc 00 00 00 00 06 	movabs $0x600000000,%r12
ffffffff800039c1:	00 00 00 
ffffffff800039c4:	31 c0                	xor    %eax,%eax
ffffffff800039c6:	4c 8d 1d 6f 53 01 00 	lea    0x1536f(%rip),%r11        # ffffffff80018d3c <__anon_3256+0x26>
ffffffff800039cd:	48 b9 00 00 00 00 07 	movabs $0x700000000,%rcx
ffffffff800039d4:	00 00 00 
ffffffff800039d7:	4c 8d 44 24 08       	lea    0x8(%rsp),%r8
ffffffff800039dc:	48 8d 35 5d 53 01 00 	lea    0x1535d(%rip),%rsi        # ffffffff80018d40 <__anon_3256+0x2a>
ffffffff800039e3:	48 8d 15 5e 53 01 00 	lea    0x1535e(%rip),%rdx        # ffffffff80018d48 <__anon_3256+0x32>
ffffffff800039ea:	49 b9 80 80 80 80 80 	movabs $0x8080808080808080,%r9
ffffffff800039f1:	80 80 80 
ffffffff800039f4:	31 ed                	xor    %ebp,%ebp
ffffffff800039f6:	48 89 ef             	mov    %rbp,%rdi
ffffffff800039f9:	48 83 c7 08          	add    $0x8,%rdi
ffffffff800039fd:	73 41                	jae    ffffffff80003a40 <fmt.formatBuf__anon_2525+0xc0>
ffffffff800039ff:	e9 dc 09 00 00       	jmp    ffffffff800043e0 <fmt.formatBuf__anon_2525+0xa60>
ffffffff80003a04:	4c 89 64 24 08       	mov    %r12,0x8(%rsp)
ffffffff80003a09:	41 0f b7 78 04       	movzwl 0x4(%r8),%edi
ffffffff80003a0e:	48 c1 e7 20          	shl    $0x20,%rdi
ffffffff80003a12:	0f 85 6e 04 00 00    	jne    ffffffff80003e86 <fmt.formatBuf__anon_2525+0x506>
ffffffff80003a18:	48 ff c0             	inc    %rax
ffffffff80003a1b:	0f 84 bf 09 00 00    	je     ffffffff800043e0 <fmt.formatBuf__anon_2525+0xa60>
ffffffff80003a21:	4c 89 ed             	mov    %r13,%rbp
ffffffff80003a24:	48 39 dd             	cmp    %rbx,%rbp
ffffffff80003a27:	0f 83 5c 04 00 00    	jae    ffffffff80003e89 <fmt.formatBuf__anon_2525+0x509>
ffffffff80003a2d:	48 89 ef             	mov    %rbp,%rdi
ffffffff80003a30:	48 83 c7 08          	add    $0x8,%rdi
ffffffff80003a34:	0f 82 a6 09 00 00    	jb     ffffffff800043e0 <fmt.formatBuf__anon_2525+0xa60>
ffffffff80003a3a:	66 0f 1f 44 00 00    	nopw   0x0(%rax,%rax,1)
ffffffff80003a40:	48 39 df             	cmp    %rbx,%rdi
ffffffff80003a43:	77 2b                	ja     ffffffff80003a70 <fmt.formatBuf__anon_2525+0xf0>
ffffffff80003a45:	4c 8d 7d 08          	lea    0x8(%rbp),%r15
ffffffff80003a49:	49 39 df             	cmp    %rbx,%r15
ffffffff80003a4c:	0f 87 9f 09 00 00    	ja     ffffffff800043f1 <fmt.formatBuf__anon_2525+0xa71>
ffffffff80003a52:	4d 85 0c 2e          	test   %r9,(%r14,%rbp,1)
ffffffff80003a56:	75 18                	jne    ffffffff80003a70 <fmt.formatBuf__anon_2525+0xf0>
ffffffff80003a58:	48 83 c0 08          	add    $0x8,%rax
ffffffff80003a5c:	0f 82 7e 09 00 00    	jb     ffffffff800043e0 <fmt.formatBuf__anon_2525+0xa60>
ffffffff80003a62:	48 89 fd             	mov    %rdi,%rbp
ffffffff80003a65:	48 83 c7 08          	add    $0x8,%rdi
ffffffff80003a69:	73 d5                	jae    ffffffff80003a40 <fmt.formatBuf__anon_2525+0xc0>
ffffffff80003a6b:	e9 70 09 00 00       	jmp    ffffffff800043e0 <fmt.formatBuf__anon_2525+0xa60>
ffffffff80003a70:	48 39 dd             	cmp    %rbx,%rbp
ffffffff80003a73:	73 af                	jae    ffffffff80003a24 <fmt.formatBuf__anon_2525+0xa4>
ffffffff80003a75:	41 0f b6 3c 2e       	movzbl (%r14,%rbp,1),%edi
ffffffff80003a7a:	4d 89 df             	mov    %r11,%r15
ffffffff80003a7d:	40 84 ff             	test   %dil,%dil
ffffffff80003a80:	79 3e                	jns    ffffffff80003ac0 <fmt.formatBuf__anon_2525+0x140>
ffffffff80003a82:	41 89 fd             	mov    %edi,%r13d
ffffffff80003a85:	41 80 e5 e0          	and    $0xe0,%r13b
ffffffff80003a89:	49 89 f7             	mov    %rsi,%r15
ffffffff80003a8c:	41 80 fd c0          	cmp    $0xc0,%r13b
ffffffff80003a90:	74 2e                	je     ffffffff80003ac0 <fmt.formatBuf__anon_2525+0x140>
ffffffff80003a92:	41 89 fd             	mov    %edi,%r13d
ffffffff80003a95:	41 80 e5 f0          	and    $0xf0,%r13b
ffffffff80003a99:	49 89 d7             	mov    %rdx,%r15
ffffffff80003a9c:	41 80 fd e0          	cmp    $0xe0,%r13b
ffffffff80003aa0:	74 1e                	je     ffffffff80003ac0 <fmt.formatBuf__anon_2525+0x140>
ffffffff80003aa2:	41 89 ff             	mov    %edi,%r15d
ffffffff80003aa5:	41 80 e7 f8          	and    $0xf8,%r15b
ffffffff80003aa9:	41 80 ff f0          	cmp    $0xf0,%r15b
ffffffff80003aad:	4c 8d 3d 90 52 01 00 	lea    0x15290(%rip),%r15        # ffffffff80018d44 <__anon_3256+0x2e>
ffffffff80003ab4:	4c 8d 15 7d 52 01 00 	lea    0x1527d(%rip),%r10        # ffffffff80018d38 <__anon_3256+0x22>
ffffffff80003abb:	4d 0f 44 fa          	cmove  %r10,%r15
ffffffff80003abf:	90                   	nop
ffffffff80003ac0:	66 41 83 3f 00       	cmpw   $0x0,(%r15)
ffffffff80003ac5:	0f 85 bb 03 00 00    	jne    ffffffff80003e86 <fmt.formatBuf__anon_2525+0x506>
ffffffff80003acb:	45 0f b6 7f 02       	movzbl 0x2(%r15),%r15d
ffffffff80003ad0:	45 89 fd             	mov    %r15d,%r13d
ffffffff80003ad3:	41 83 e5 07          	and    $0x7,%r13d
ffffffff80003ad7:	49 01 ed             	add    %rbp,%r13
ffffffff80003ada:	0f 82 00 09 00 00    	jb     ffffffff800043e0 <fmt.formatBuf__anon_2525+0xa60>
ffffffff80003ae0:	49 39 dd             	cmp    %rbx,%r13
ffffffff80003ae3:	0f 87 9d 03 00 00    	ja     ffffffff80003e86 <fmt.formatBuf__anon_2525+0x506>
ffffffff80003ae9:	45 89 fa             	mov    %r15d,%r10d
ffffffff80003aec:	41 80 e2 07          	and    $0x7,%r10b
ffffffff80003af0:	41 80 fa 01          	cmp    $0x1,%r10b
ffffffff80003af4:	0f 84 1e ff ff ff    	je     ffffffff80003a18 <fmt.formatBuf__anon_2525+0x98>
ffffffff80003afa:	45 89 fa             	mov    %r15d,%r10d
ffffffff80003afd:	41 80 e2 07          	and    $0x7,%r10b
ffffffff80003b01:	41 80 fa 02          	cmp    $0x2,%r10b
ffffffff80003b05:	0f 84 30 02 00 00    	je     ffffffff80003d3b <fmt.formatBuf__anon_2525+0x3bb>
ffffffff80003b0b:	41 83 e7 07          	and    $0x7,%r15d
ffffffff80003b0f:	41 83 ff 03          	cmp    $0x3,%r15d
ffffffff80003b13:	0f 84 3e 01 00 00    	je     ffffffff80003c57 <fmt.formatBuf__anon_2525+0x2d7>
ffffffff80003b19:	41 83 ff 04          	cmp    $0x4,%r15d
ffffffff80003b1d:	0f 85 f0 08 00 00    	jne    ffffffff80004413 <fmt.formatBuf__anon_2525+0xa93>
ffffffff80003b23:	41 89 fa             	mov    %edi,%r10d
ffffffff80003b26:	41 80 e2 f8          	and    $0xf8,%r10b
ffffffff80003b2a:	41 80 fa f0          	cmp    $0xf0,%r10b
ffffffff80003b2e:	0f 85 df 08 00 00    	jne    ffffffff80004413 <fmt.formatBuf__anon_2525+0xa93>
ffffffff80003b34:	40 0f b6 ff          	movzbl %dil,%edi
ffffffff80003b38:	83 e7 07             	and    $0x7,%edi
ffffffff80003b3b:	66 89 3c 24          	mov    %di,(%rsp)
ffffffff80003b3f:	c6 44 24 02 00       	movb   $0x0,0x2(%rsp)
ffffffff80003b44:	41 0f b6 7c 2e 01    	movzbl 0x1(%r14,%rbp,1),%edi
ffffffff80003b4a:	41 89 fa             	mov    %edi,%r10d
ffffffff80003b4d:	41 80 e2 c0          	and    $0xc0,%r10b
ffffffff80003b51:	41 80 fa 80          	cmp    $0x80,%r10b
ffffffff80003b55:	0f 85 a9 fe ff ff    	jne    ffffffff80003a04 <fmt.formatBuf__anon_2525+0x84>
ffffffff80003b5b:	44 0f b7 14 24       	movzwl (%rsp),%r10d
ffffffff80003b60:	45 89 d7             	mov    %r10d,%r15d
ffffffff80003b63:	41 c1 e7 06          	shl    $0x6,%r15d
ffffffff80003b67:	41 c1 ea 0a          	shr    $0xa,%r10d
ffffffff80003b6b:	41 83 e2 1f          	and    $0x1f,%r10d
ffffffff80003b6f:	44 88 54 24 02       	mov    %r10b,0x2(%rsp)
ffffffff80003b74:	41 c1 e2 10          	shl    $0x10,%r10d
ffffffff80003b78:	45 0f b7 ff          	movzwl %r15w,%r15d
ffffffff80003b7c:	45 09 d7             	or     %r10d,%r15d
ffffffff80003b7f:	40 80 e7 3f          	and    $0x3f,%dil
ffffffff80003b83:	40 0f b6 ff          	movzbl %dil,%edi
ffffffff80003b87:	44 09 ff             	or     %r15d,%edi
ffffffff80003b8a:	66 89 3c 24          	mov    %di,(%rsp)
ffffffff80003b8e:	41 0f b6 7c 2e 02    	movzbl 0x2(%r14,%rbp,1),%edi
ffffffff80003b94:	41 89 fa             	mov    %edi,%r10d
ffffffff80003b97:	41 80 e2 c0          	and    $0xc0,%r10b
ffffffff80003b9b:	41 80 fa 80          	cmp    $0x80,%r10b
ffffffff80003b9f:	0f 85 5f fe ff ff    	jne    ffffffff80003a04 <fmt.formatBuf__anon_2525+0x84>
ffffffff80003ba5:	44 0f b7 14 24       	movzwl (%rsp),%r10d
ffffffff80003baa:	45 89 d7             	mov    %r10d,%r15d
ffffffff80003bad:	41 c1 e7 06          	shl    $0x6,%r15d
ffffffff80003bb1:	41 c1 ea 0a          	shr    $0xa,%r10d
ffffffff80003bb5:	41 83 e2 1f          	and    $0x1f,%r10d
ffffffff80003bb9:	44 88 54 24 02       	mov    %r10b,0x2(%rsp)
ffffffff80003bbe:	41 c1 e2 10          	shl    $0x10,%r10d
ffffffff80003bc2:	45 0f b7 ff          	movzwl %r15w,%r15d
ffffffff80003bc6:	45 09 d7             	or     %r10d,%r15d
ffffffff80003bc9:	40 80 e7 3f          	and    $0x3f,%dil
ffffffff80003bcd:	40 0f b6 ff          	movzbl %dil,%edi
ffffffff80003bd1:	44 09 ff             	or     %r15d,%edi
ffffffff80003bd4:	66 89 3c 24          	mov    %di,(%rsp)
ffffffff80003bd8:	41 0f b6 7c 2e 03    	movzbl 0x3(%r14,%rbp,1),%edi
ffffffff80003bde:	41 89 fa             	mov    %edi,%r10d
ffffffff80003be1:	41 80 e2 c0          	and    $0xc0,%r10b
ffffffff80003be5:	41 80 fa 80          	cmp    $0x80,%r10b
ffffffff80003be9:	0f 85 15 fe ff ff    	jne    ffffffff80003a04 <fmt.formatBuf__anon_2525+0x84>
ffffffff80003bef:	44 0f b7 14 24       	movzwl (%rsp),%r10d
ffffffff80003bf4:	44 89 d5             	mov    %r10d,%ebp
ffffffff80003bf7:	c1 e5 06             	shl    $0x6,%ebp
ffffffff80003bfa:	41 c1 ea 0a          	shr    $0xa,%r10d
ffffffff80003bfe:	41 83 e2 1f          	and    $0x1f,%r10d
ffffffff80003c02:	44 88 54 24 02       	mov    %r10b,0x2(%rsp)
ffffffff80003c07:	41 c1 e2 10          	shl    $0x10,%r10d
ffffffff80003c0b:	0f b7 ed             	movzwl %bp,%ebp
ffffffff80003c0e:	44 09 d5             	or     %r10d,%ebp
ffffffff80003c11:	40 80 e7 3f          	and    $0x3f,%dil
ffffffff80003c15:	40 0f b6 ff          	movzbl %dil,%edi
ffffffff80003c19:	09 ef                	or     %ebp,%edi
ffffffff80003c1b:	66 89 3c 24          	mov    %di,(%rsp)
ffffffff80003c1f:	0f b7 ff             	movzwl %di,%edi
ffffffff80003c22:	44 09 d7             	or     %r10d,%edi
ffffffff80003c25:	81 ff ff ff 00 00    	cmp    $0xffff,%edi
ffffffff80003c2b:	0f 86 7d 01 00 00    	jbe    ffffffff80003dae <fmt.formatBuf__anon_2525+0x42e>
ffffffff80003c31:	81 ff 00 00 11 00    	cmp    $0x110000,%edi
ffffffff80003c37:	0f 82 7b 01 00 00    	jb     ffffffff80003db8 <fmt.formatBuf__anon_2525+0x438>
ffffffff80003c3d:	48 89 f7             	mov    %rsi,%rdi
ffffffff80003c40:	48 be 00 00 00 00 09 	movabs $0x900000000,%rsi
ffffffff80003c47:	00 00 00 
ffffffff80003c4a:	48 89 74 24 08       	mov    %rsi,0x8(%rsp)
ffffffff80003c4f:	48 89 fe             	mov    %rdi,%rsi
ffffffff80003c52:	e9 b2 fd ff ff       	jmp    ffffffff80003a09 <fmt.formatBuf__anon_2525+0x89>
ffffffff80003c57:	41 89 fa             	mov    %edi,%r10d
ffffffff80003c5a:	41 80 e2 f0          	and    $0xf0,%r10b
ffffffff80003c5e:	41 80 fa e0          	cmp    $0xe0,%r10b
ffffffff80003c62:	0f 85 ab 07 00 00    	jne    ffffffff80004413 <fmt.formatBuf__anon_2525+0xa93>
ffffffff80003c68:	40 0f b6 ff          	movzbl %dil,%edi
ffffffff80003c6c:	83 e7 0f             	and    $0xf,%edi
ffffffff80003c6f:	66 89 3c 24          	mov    %di,(%rsp)
ffffffff80003c73:	c6 44 24 02 00       	movb   $0x0,0x2(%rsp)
ffffffff80003c78:	45 0f b6 7c 2e 01    	movzbl 0x1(%r14,%rbp,1),%r15d
ffffffff80003c7e:	45 89 fa             	mov    %r15d,%r10d
ffffffff80003c81:	41 80 e2 c0          	and    $0xc0,%r10b
ffffffff80003c85:	66 bf 06 00          	mov    $0x6,%di
ffffffff80003c89:	41 80 fa 80          	cmp    $0x80,%r10b
ffffffff80003c8d:	0f 85 9e 00 00 00    	jne    ffffffff80003d31 <fmt.formatBuf__anon_2525+0x3b1>
ffffffff80003c93:	44 0f b7 14 24       	movzwl (%rsp),%r10d
ffffffff80003c98:	48 89 ce             	mov    %rcx,%rsi
ffffffff80003c9b:	4c 89 e1             	mov    %r12,%rcx
ffffffff80003c9e:	45 89 d4             	mov    %r10d,%r12d
ffffffff80003ca1:	41 c1 e4 06          	shl    $0x6,%r12d
ffffffff80003ca5:	41 c1 ea 0a          	shr    $0xa,%r10d
ffffffff80003ca9:	41 83 e2 1f          	and    $0x1f,%r10d
ffffffff80003cad:	44 88 54 24 02       	mov    %r10b,0x2(%rsp)
ffffffff80003cb2:	41 c1 e2 10          	shl    $0x10,%r10d
ffffffff80003cb6:	45 0f b7 e4          	movzwl %r12w,%r12d
ffffffff80003cba:	45 09 d4             	or     %r10d,%r12d
ffffffff80003cbd:	41 80 e7 3f          	and    $0x3f,%r15b
ffffffff80003cc1:	45 0f b6 d7          	movzbl %r15b,%r10d
ffffffff80003cc5:	45 09 e2             	or     %r12d,%r10d
ffffffff80003cc8:	49 89 cc             	mov    %rcx,%r12
ffffffff80003ccb:	48 89 f1             	mov    %rsi,%rcx
ffffffff80003cce:	48 8d 35 6b 50 01 00 	lea    0x1506b(%rip),%rsi        # ffffffff80018d40 <__anon_3256+0x2a>
ffffffff80003cd5:	66 44 89 14 24       	mov    %r10w,(%rsp)
ffffffff80003cda:	41 0f b6 6c 2e 02    	movzbl 0x2(%r14,%rbp,1),%ebp
ffffffff80003ce0:	41 89 ea             	mov    %ebp,%r10d
ffffffff80003ce3:	41 80 e2 c0          	and    $0xc0,%r10b
ffffffff80003ce7:	41 80 fa 80          	cmp    $0x80,%r10b
ffffffff80003ceb:	75 44                	jne    ffffffff80003d31 <fmt.formatBuf__anon_2525+0x3b1>
ffffffff80003ced:	0f b7 3c 24          	movzwl (%rsp),%edi
ffffffff80003cf1:	41 89 fa             	mov    %edi,%r10d
ffffffff80003cf4:	41 c1 e2 06          	shl    $0x6,%r10d
ffffffff80003cf8:	c1 ef 0a             	shr    $0xa,%edi
ffffffff80003cfb:	83 e7 1f             	and    $0x1f,%edi
ffffffff80003cfe:	40 88 7c 24 02       	mov    %dil,0x2(%rsp)
ffffffff80003d03:	c1 e7 10             	shl    $0x10,%edi
ffffffff80003d06:	45 0f b7 d2          	movzwl %r10w,%r10d
ffffffff80003d0a:	41 09 fa             	or     %edi,%r10d
ffffffff80003d0d:	40 80 e5 3f          	and    $0x3f,%bpl
ffffffff80003d11:	40 0f b6 ed          	movzbl %bpl,%ebp
ffffffff80003d15:	44 09 d5             	or     %r10d,%ebp
ffffffff80003d18:	66 89 2c 24          	mov    %bp,(%rsp)
ffffffff80003d1c:	0f b7 ed             	movzwl %bp,%ebp
ffffffff80003d1f:	09 fd                	or     %edi,%ebp
ffffffff80003d21:	66 bf 07 00          	mov    $0x7,%di
ffffffff80003d25:	81 fd ff 07 00 00    	cmp    $0x7ff,%ebp
ffffffff80003d2b:	0f 87 ae 00 00 00    	ja     ffffffff80003ddf <fmt.formatBuf__anon_2525+0x45f>
ffffffff80003d31:	66 89 7c 24 0c       	mov    %di,0xc(%rsp)
ffffffff80003d36:	e9 ce fc ff ff       	jmp    ffffffff80003a09 <fmt.formatBuf__anon_2525+0x89>
ffffffff80003d3b:	41 89 fa             	mov    %edi,%r10d
ffffffff80003d3e:	41 80 e2 e0          	and    $0xe0,%r10b
ffffffff80003d42:	41 80 fa c0          	cmp    $0xc0,%r10b
ffffffff80003d46:	0f 85 c7 06 00 00    	jne    ffffffff80004413 <fmt.formatBuf__anon_2525+0xa93>
ffffffff80003d4c:	40 0f b6 ff          	movzbl %dil,%edi
ffffffff80003d50:	83 e7 1f             	and    $0x1f,%edi
ffffffff80003d53:	66 89 3c 24          	mov    %di,(%rsp)
ffffffff80003d57:	c6 44 24 02 00       	movb   $0x0,0x2(%rsp)
ffffffff80003d5c:	41 0f b6 7c 2e 01    	movzbl 0x1(%r14,%rbp,1),%edi
ffffffff80003d62:	41 89 fa             	mov    %edi,%r10d
ffffffff80003d65:	41 80 e2 c0          	and    $0xc0,%r10b
ffffffff80003d69:	41 80 fa 80          	cmp    $0x80,%r10b
ffffffff80003d6d:	0f 85 91 fc ff ff    	jne    ffffffff80003a04 <fmt.formatBuf__anon_2525+0x84>
ffffffff80003d73:	44 0f b7 14 24       	movzwl (%rsp),%r10d
ffffffff80003d78:	44 89 d5             	mov    %r10d,%ebp
ffffffff80003d7b:	c1 e5 06             	shl    $0x6,%ebp
ffffffff80003d7e:	41 c1 ea 0a          	shr    $0xa,%r10d
ffffffff80003d82:	41 83 e2 1f          	and    $0x1f,%r10d
ffffffff80003d86:	44 88 54 24 02       	mov    %r10b,0x2(%rsp)
ffffffff80003d8b:	41 c1 e2 10          	shl    $0x10,%r10d
ffffffff80003d8f:	0f b7 ed             	movzwl %bp,%ebp
ffffffff80003d92:	44 09 d5             	or     %r10d,%ebp
ffffffff80003d95:	40 80 e7 3f          	and    $0x3f,%dil
ffffffff80003d99:	40 0f b6 ff          	movzbl %dil,%edi
ffffffff80003d9d:	09 ef                	or     %ebp,%edi
ffffffff80003d9f:	66 89 3c 24          	mov    %di,(%rsp)
ffffffff80003da3:	0f b7 ff             	movzwl %di,%edi
ffffffff80003da6:	44 09 d7             	or     %r10d,%edi
ffffffff80003da9:	83 ff 7f             	cmp    $0x7f,%edi
ffffffff80003dac:	77 0a                	ja     ffffffff80003db8 <fmt.formatBuf__anon_2525+0x438>
ffffffff80003dae:	48 89 4c 24 08       	mov    %rcx,0x8(%rsp)
ffffffff80003db3:	e9 51 fc ff ff       	jmp    ffffffff80003a09 <fmt.formatBuf__anon_2525+0x89>
ffffffff80003db8:	66 89 7c 24 1c       	mov    %di,0x1c(%rsp)
ffffffff80003dbd:	41 89 fa             	mov    %edi,%r10d
ffffffff80003dc0:	41 c1 ea 10          	shr    $0x10,%r10d
ffffffff80003dc4:	44 88 54 24 1e       	mov    %r10b,0x1e(%rsp)
ffffffff80003dc9:	66 89 7c 24 08       	mov    %di,0x8(%rsp)
ffffffff80003dce:	44 88 54 24 0a       	mov    %r10b,0xa(%rsp)
ffffffff80003dd3:	66 c7 44 24 0c 00 00 	movw   $0x0,0xc(%rsp)
ffffffff80003dda:	e9 2a fc ff ff       	jmp    ffffffff80003a09 <fmt.formatBuf__anon_2525+0x89>
ffffffff80003ddf:	89 ef                	mov    %ebp,%edi
ffffffff80003de1:	81 e7 00 f8 1f 00    	and    $0x1ff800,%edi
ffffffff80003de7:	81 ff 00 d8 00 00    	cmp    $0xd800,%edi
ffffffff80003ded:	75 1b                	jne    ffffffff80003e0a <fmt.formatBuf__anon_2525+0x48a>
ffffffff80003def:	48 be 00 00 00 00 08 	movabs $0x800000000,%rsi
ffffffff80003df6:	00 00 00 
ffffffff80003df9:	48 89 74 24 08       	mov    %rsi,0x8(%rsp)
ffffffff80003dfe:	48 8d 35 3b 4f 01 00 	lea    0x14f3b(%rip),%rsi        # ffffffff80018d40 <__anon_3256+0x2a>
ffffffff80003e05:	e9 ff fb ff ff       	jmp    ffffffff80003a09 <fmt.formatBuf__anon_2525+0x89>
ffffffff80003e0a:	66 89 6c 24 1c       	mov    %bp,0x1c(%rsp)
ffffffff80003e0f:	89 ef                	mov    %ebp,%edi
ffffffff80003e11:	c1 ef 10             	shr    $0x10,%edi
ffffffff80003e14:	40 88 7c 24 1e       	mov    %dil,0x1e(%rsp)
ffffffff80003e19:	66 89 6c 24 08       	mov    %bp,0x8(%rsp)
ffffffff80003e1e:	40 88 7c 24 0a       	mov    %dil,0xa(%rsp)
ffffffff80003e23:	eb ae                	jmp    ffffffff80003dd3 <fmt.formatBuf__anon_2525+0x453>
ffffffff80003e25:	48 85 db             	test   %rbx,%rbx
ffffffff80003e28:	0f 84 a1 05 00 00    	je     ffffffff800043cf <fmt.formatBuf__anon_2525+0xa4f>
ffffffff80003e2e:	4c 8b 21             	mov    (%rcx),%r12
ffffffff80003e31:	4c 8b 69 08          	mov    0x8(%rcx),%r13
ffffffff80003e35:	31 ed                	xor    %ebp,%ebp
ffffffff80003e37:	4c 8d 7c 24 08       	lea    0x8(%rsp),%r15
ffffffff80003e3c:	0f 1f 40 00          	nopl   0x0(%rax)
ffffffff80003e40:	48 89 d9             	mov    %rbx,%rcx
ffffffff80003e43:	48 29 e9             	sub    %rbp,%rcx
ffffffff80003e46:	0f 82 b6 05 00 00    	jb     ffffffff80004402 <fmt.formatBuf__anon_2525+0xa82>
ffffffff80003e4c:	49 8d 14 2e          	lea    (%r14,%rbp,1),%rdx
ffffffff80003e50:	4c 89 ff             	mov    %r15,%rdi
ffffffff80003e53:	4c 89 e6             	mov    %r12,%rsi
ffffffff80003e56:	41 ff d5             	call   *%r13
ffffffff80003e59:	0f b7 44 24 10       	movzwl 0x10(%rsp),%eax
ffffffff80003e5e:	66 85 c0             	test   %ax,%ax
ffffffff80003e61:	0f 85 6a 05 00 00    	jne    ffffffff800043d1 <fmt.formatBuf__anon_2525+0xa51>
ffffffff80003e67:	48 03 6c 24 08       	add    0x8(%rsp),%rbp
ffffffff80003e6c:	0f 82 6e 05 00 00    	jb     ffffffff800043e0 <fmt.formatBuf__anon_2525+0xa60>
ffffffff80003e72:	48 39 dd             	cmp    %rbx,%rbp
ffffffff80003e75:	75 c9                	jne    ffffffff80003e40 <fmt.formatBuf__anon_2525+0x4c0>
ffffffff80003e77:	e9 53 05 00 00       	jmp    ffffffff800043cf <fmt.formatBuf__anon_2525+0xa4f>
ffffffff80003e7c:	4d 85 db             	test   %r11,%r11
ffffffff80003e7f:	75 22                	jne    ffffffff80003ea3 <fmt.formatBuf__anon_2525+0x523>
ffffffff80003e81:	e9 49 05 00 00       	jmp    ffffffff800043cf <fmt.formatBuf__anon_2525+0xa4f>
ffffffff80003e86:	48 89 d8             	mov    %rbx,%rax
ffffffff80003e89:	31 c9                	xor    %ecx,%ecx
ffffffff80003e8b:	4c 8b 5c 24 20       	mov    0x20(%rsp),%r11
ffffffff80003e90:	49 29 c3             	sub    %rax,%r11
ffffffff80003e93:	4c 0f 42 d9          	cmovb  %rcx,%r11
ffffffff80003e97:	48 8b 4c 24 38       	mov    0x38(%rsp),%rcx
ffffffff80003e9c:	48 8b 54 24 28       	mov    0x28(%rsp),%rdx
ffffffff80003ea1:	76 23                	jbe    ffffffff80003ec6 <fmt.formatBuf__anon_2525+0x546>
ffffffff80003ea3:	c7 44 24 04 aa aa aa 	movl   $0xaaaaaaaa,0x4(%rsp)
ffffffff80003eaa:	aa 
ffffffff80003eab:	8b 42 20             	mov    0x20(%rdx),%eax
ffffffff80003eae:	89 c6                	mov    %eax,%esi
ffffffff80003eb0:	81 e6 ff ff 1f 00    	and    $0x1fffff,%esi
ffffffff80003eb6:	83 fe 7f             	cmp    $0x7f,%esi
ffffffff80003eb9:	77 61                	ja     ffffffff80003f1c <fmt.formatBuf__anon_2525+0x59c>
ffffffff80003ebb:	8b 3d 7b 4e 01 00    	mov    0x14e7b(%rip),%edi        # ffffffff80018d3c <__anon_3256+0x26>
ffffffff80003ec1:	e9 89 00 00 00       	jmp    ffffffff80003f4f <fmt.formatBuf__anon_2525+0x5cf>
ffffffff80003ec6:	4c 8b 21             	mov    (%rcx),%r12
ffffffff80003ec9:	4c 8b 69 08          	mov    0x8(%rcx),%r13
ffffffff80003ecd:	31 ed                	xor    %ebp,%ebp
ffffffff80003ecf:	4c 8d 7c 24 08       	lea    0x8(%rsp),%r15
ffffffff80003ed4:	66 2e 0f 1f 84 00 00 	cs nopw 0x0(%rax,%rax,1)
ffffffff80003edb:	00 00 00 
ffffffff80003ede:	66 90                	xchg   %ax,%ax
ffffffff80003ee0:	48 89 d9             	mov    %rbx,%rcx
ffffffff80003ee3:	48 29 e9             	sub    %rbp,%rcx
ffffffff80003ee6:	0f 82 16 05 00 00    	jb     ffffffff80004402 <fmt.formatBuf__anon_2525+0xa82>
ffffffff80003eec:	49 8d 14 2e          	lea    (%r14,%rbp,1),%rdx
ffffffff80003ef0:	4c 89 ff             	mov    %r15,%rdi
ffffffff80003ef3:	4c 89 e6             	mov    %r12,%rsi
ffffffff80003ef6:	41 ff d5             	call   *%r13
ffffffff80003ef9:	0f b7 44 24 10       	movzwl 0x10(%rsp),%eax
ffffffff80003efe:	66 85 c0             	test   %ax,%ax
ffffffff80003f01:	0f 85 ca 04 00 00    	jne    ffffffff800043d1 <fmt.formatBuf__anon_2525+0xa51>
ffffffff80003f07:	48 03 6c 24 08       	add    0x8(%rsp),%rbp
ffffffff80003f0c:	0f 82 ce 04 00 00    	jb     ffffffff800043e0 <fmt.formatBuf__anon_2525+0xa60>
ffffffff80003f12:	48 39 dd             	cmp    %rbx,%rbp
ffffffff80003f15:	75 c9                	jne    ffffffff80003ee0 <fmt.formatBuf__anon_2525+0x560>
ffffffff80003f17:	e9 b3 04 00 00       	jmp    ffffffff800043cf <fmt.formatBuf__anon_2525+0xa4f>
ffffffff80003f1c:	81 fe ff 07 00 00    	cmp    $0x7ff,%esi
ffffffff80003f22:	77 08                	ja     ffffffff80003f2c <fmt.formatBuf__anon_2525+0x5ac>
ffffffff80003f24:	8b 3d 16 4e 01 00    	mov    0x14e16(%rip),%edi        # ffffffff80018d40 <__anon_3256+0x2a>
ffffffff80003f2a:	eb 23                	jmp    ffffffff80003f4f <fmt.formatBuf__anon_2525+0x5cf>
ffffffff80003f2c:	81 fe ff ff 00 00    	cmp    $0xffff,%esi
ffffffff80003f32:	77 08                	ja     ffffffff80003f3c <fmt.formatBuf__anon_2525+0x5bc>
ffffffff80003f34:	8b 3d 0e 4e 01 00    	mov    0x14e0e(%rip),%edi        # ffffffff80018d48 <__anon_3256+0x32>
ffffffff80003f3a:	eb 13                	jmp    ffffffff80003f4f <fmt.formatBuf__anon_2525+0x5cf>
ffffffff80003f3c:	bf 0d 00 00 00       	mov    $0xd,%edi
ffffffff80003f41:	81 fe 00 00 11 00    	cmp    $0x110000,%esi
ffffffff80003f47:	73 06                	jae    ffffffff80003f4f <fmt.formatBuf__anon_2525+0x5cf>
ffffffff80003f49:	8b 3d e9 4d 01 00    	mov    0x14de9(%rip),%edi        # ffffffff80018d38 <__anon_3256+0x22>
ffffffff80003f4f:	66 85 ff             	test   %di,%di
ffffffff80003f52:	0f 84 15 01 00 00    	je     ffffffff8000406d <fmt.formatBuf__anon_2525+0x6ed>
ffffffff80003f58:	81 e7 fe ff 00 00    	and    $0xfffe,%edi
ffffffff80003f5e:	66 83 ff 0c          	cmp    $0xc,%di
ffffffff80003f62:	0f 85 bc 04 00 00    	jne    ffffffff80004424 <fmt.formatBuf__anon_2525+0xaa4>
ffffffff80003f68:	41 bf 03 00 00 00    	mov    $0x3,%r15d
ffffffff80003f6e:	48 8d 05 82 4b 01 00 	lea    0x14b82(%rip),%rax        # ffffffff80018af7 <__anon_5249>
ffffffff80003f75:	48 89 44 24 28       	mov    %rax,0x28(%rsp)
ffffffff80003f7a:	0f b6 42 24          	movzbl 0x24(%rdx),%eax
ffffffff80003f7e:	a8 03                	test   $0x3,%al
ffffffff80003f80:	0f 84 87 03 00 00    	je     ffffffff8000430d <fmt.formatBuf__anon_2525+0x98d>
ffffffff80003f86:	83 e0 03             	and    $0x3,%eax
ffffffff80003f89:	83 f8 01             	cmp    $0x1,%eax
ffffffff80003f8c:	0f 84 27 01 00 00    	je     ffffffff800040b9 <fmt.formatBuf__anon_2525+0x739>
ffffffff80003f92:	83 f8 02             	cmp    $0x2,%eax
ffffffff80003f95:	0f 85 89 04 00 00    	jne    ffffffff80004424 <fmt.formatBuf__anon_2525+0xaa4>
ffffffff80003f9b:	4c 8b 21             	mov    (%rcx),%r12
ffffffff80003f9e:	48 8b 69 08          	mov    0x8(%rcx),%rbp
ffffffff80003fa2:	4d 85 ff             	test   %r15,%r15
ffffffff80003fa5:	74 72                	je     ffffffff80004019 <fmt.formatBuf__anon_2525+0x699>
ffffffff80003fa7:	49 83 fb 01          	cmp    $0x1,%r11
ffffffff80003fab:	49 83 d3 00          	adc    $0x0,%r11
ffffffff80003faf:	4c 89 5c 24 20       	mov    %r11,0x20(%rsp)
ffffffff80003fb4:	31 c0                	xor    %eax,%eax
ffffffff80003fb6:	48 89 44 24 30       	mov    %rax,0x30(%rsp)
ffffffff80003fbb:	45 31 ed             	xor    %r13d,%r13d
ffffffff80003fbe:	66 90                	xchg   %ax,%ax
ffffffff80003fc0:	4c 89 f9             	mov    %r15,%rcx
ffffffff80003fc3:	4c 29 e9             	sub    %r13,%rcx
ffffffff80003fc6:	0f 82 36 04 00 00    	jb     ffffffff80004402 <fmt.formatBuf__anon_2525+0xa82>
ffffffff80003fcc:	48 8b 44 24 28       	mov    0x28(%rsp),%rax
ffffffff80003fd1:	4a 8d 14 28          	lea    (%rax,%r13,1),%rdx
ffffffff80003fd5:	48 8d 7c 24 08       	lea    0x8(%rsp),%rdi
ffffffff80003fda:	4c 89 e6             	mov    %r12,%rsi
ffffffff80003fdd:	ff d5                	call   *%rbp
ffffffff80003fdf:	0f b7 44 24 10       	movzwl 0x10(%rsp),%eax
ffffffff80003fe4:	66 85 c0             	test   %ax,%ax
ffffffff80003fe7:	0f 85 e4 03 00 00    	jne    ffffffff800043d1 <fmt.formatBuf__anon_2525+0xa51>
ffffffff80003fed:	4c 03 6c 24 08       	add    0x8(%rsp),%r13
ffffffff80003ff2:	0f 82 e8 03 00 00    	jb     ffffffff800043e0 <fmt.formatBuf__anon_2525+0xa60>
ffffffff80003ff8:	4d 39 fd             	cmp    %r15,%r13
ffffffff80003ffb:	75 c3                	jne    ffffffff80003fc0 <fmt.formatBuf__anon_2525+0x640>
ffffffff80003ffd:	48 8b 44 24 30       	mov    0x30(%rsp),%rax
ffffffff80004002:	48 83 c0 01          	add    $0x1,%rax
ffffffff80004006:	48 3b 44 24 20       	cmp    0x20(%rsp),%rax
ffffffff8000400b:	75 a9                	jne    ffffffff80003fb6 <fmt.formatBuf__anon_2525+0x636>
ffffffff8000400d:	48 8b 44 24 38       	mov    0x38(%rsp),%rax
ffffffff80004012:	4c 8b 20             	mov    (%rax),%r12
ffffffff80004015:	48 8b 68 08          	mov    0x8(%rax),%rbp
ffffffff80004019:	48 85 db             	test   %rbx,%rbx
ffffffff8000401c:	0f 84 ad 03 00 00    	je     ffffffff800043cf <fmt.formatBuf__anon_2525+0xa4f>
ffffffff80004022:	45 31 ed             	xor    %r13d,%r13d
ffffffff80004025:	4c 8d 7c 24 08       	lea    0x8(%rsp),%r15
ffffffff8000402a:	66 0f 1f 44 00 00    	nopw   0x0(%rax,%rax,1)
ffffffff80004030:	48 89 d9             	mov    %rbx,%rcx
ffffffff80004033:	4c 29 e9             	sub    %r13,%rcx
ffffffff80004036:	0f 82 c6 03 00 00    	jb     ffffffff80004402 <fmt.formatBuf__anon_2525+0xa82>
ffffffff8000403c:	4b 8d 14 2e          	lea    (%r14,%r13,1),%rdx
ffffffff80004040:	4c 89 ff             	mov    %r15,%rdi
ffffffff80004043:	4c 89 e6             	mov    %r12,%rsi
ffffffff80004046:	ff d5                	call   *%rbp
ffffffff80004048:	0f b7 44 24 10       	movzwl 0x10(%rsp),%eax
ffffffff8000404d:	66 85 c0             	test   %ax,%ax
ffffffff80004050:	0f 85 7b 03 00 00    	jne    ffffffff800043d1 <fmt.formatBuf__anon_2525+0xa51>
ffffffff80004056:	4c 03 6c 24 08       	add    0x8(%rsp),%r13
ffffffff8000405b:	0f 82 7f 03 00 00    	jb     ffffffff800043e0 <fmt.formatBuf__anon_2525+0xa60>
ffffffff80004061:	31 c0                	xor    %eax,%eax
ffffffff80004063:	49 39 dd             	cmp    %rbx,%r13
ffffffff80004066:	75 c8                	jne    ffffffff80004030 <fmt.formatBuf__anon_2525+0x6b0>
ffffffff80004068:	e9 64 03 00 00       	jmp    ffffffff800043d1 <fmt.formatBuf__anon_2525+0xa51>
ffffffff8000406d:	c1 ef 10             	shr    $0x10,%edi
ffffffff80004070:	41 89 f9             	mov    %edi,%r9d
ffffffff80004073:	41 80 e1 07          	and    $0x7,%r9b
ffffffff80004077:	41 80 f9 05          	cmp    $0x5,%r9b
ffffffff8000407b:	0f 83 92 03 00 00    	jae    ffffffff80004413 <fmt.formatBuf__anon_2525+0xa93>
ffffffff80004081:	40 0f b6 ff          	movzbl %dil,%edi
ffffffff80004085:	83 e7 07             	and    $0x7,%edi
ffffffff80004088:	83 c7 ff             	add    $0xffffffff,%edi
ffffffff8000408b:	83 ff 03             	cmp    $0x3,%edi
ffffffff8000408e:	0f 87 7f 03 00 00    	ja     ffffffff80004413 <fmt.formatBuf__anon_2525+0xa93>
ffffffff80004094:	4c 8d 05 7d 20 00 00 	lea    0x207d(%rip),%r8        # ffffffff80006118 <AcpiGbl_Ctypes+0x108>
ffffffff8000409b:	49 63 3c b8          	movslq (%r8,%rdi,4),%rdi
ffffffff8000409f:	4c 01 c7             	add    %r8,%rdi
ffffffff800040a2:	ff e7                	jmp    *%rdi
ffffffff800040a4:	81 fe ff 00 00 00    	cmp    $0xff,%esi
ffffffff800040aa:	0f 87 85 03 00 00    	ja     ffffffff80004435 <fmt.formatBuf__anon_2525+0xab5>
ffffffff800040b0:	88 44 24 04          	mov    %al,0x4(%rsp)
ffffffff800040b4:	e9 30 02 00 00       	jmp    ffffffff800042e9 <fmt.formatBuf__anon_2525+0x969>
ffffffff800040b9:	4c 89 d8             	mov    %r11,%rax
ffffffff800040bc:	48 ff c0             	inc    %rax
ffffffff800040bf:	0f 84 1b 03 00 00    	je     ffffffff800043e0 <fmt.formatBuf__anon_2525+0xa60>
ffffffff800040c5:	4c 8b 21             	mov    (%rcx),%r12
ffffffff800040c8:	4c 8b 69 08          	mov    0x8(%rcx),%r13
ffffffff800040cc:	49 83 fb 02          	cmp    $0x2,%r11
ffffffff800040d0:	0f 82 8c 00 00 00    	jb     ffffffff80004162 <fmt.formatBuf__anon_2525+0x7e2>
ffffffff800040d6:	4d 85 ff             	test   %r15,%r15
ffffffff800040d9:	0f 84 83 00 00 00    	je     ffffffff80004162 <fmt.formatBuf__anon_2525+0x7e2>
ffffffff800040df:	48 89 44 24 30       	mov    %rax,0x30(%rsp)
ffffffff800040e4:	49 d1 eb             	shr    $1,%r11
ffffffff800040e7:	31 c0                	xor    %eax,%eax
ffffffff800040e9:	4c 89 5c 24 20       	mov    %r11,0x20(%rsp)
ffffffff800040ee:	48 89 44 24 40       	mov    %rax,0x40(%rsp)
ffffffff800040f3:	31 ed                	xor    %ebp,%ebp
ffffffff800040f5:	66 2e 0f 1f 84 00 00 	cs nopw 0x0(%rax,%rax,1)
ffffffff800040fc:	00 00 00 
ffffffff800040ff:	90                   	nop
ffffffff80004100:	4c 89 f9             	mov    %r15,%rcx
ffffffff80004103:	48 29 e9             	sub    %rbp,%rcx
ffffffff80004106:	0f 82 f6 02 00 00    	jb     ffffffff80004402 <fmt.formatBuf__anon_2525+0xa82>
ffffffff8000410c:	48 8b 44 24 28       	mov    0x28(%rsp),%rax
ffffffff80004111:	48 8d 14 28          	lea    (%rax,%rbp,1),%rdx
ffffffff80004115:	48 8d 7c 24 08       	lea    0x8(%rsp),%rdi
ffffffff8000411a:	4c 89 e6             	mov    %r12,%rsi
ffffffff8000411d:	41 ff d5             	call   *%r13
ffffffff80004120:	0f b7 44 24 10       	movzwl 0x10(%rsp),%eax
ffffffff80004125:	66 85 c0             	test   %ax,%ax
ffffffff80004128:	0f 85 a3 02 00 00    	jne    ffffffff800043d1 <fmt.formatBuf__anon_2525+0xa51>
ffffffff8000412e:	48 03 6c 24 08       	add    0x8(%rsp),%rbp
ffffffff80004133:	0f 82 a7 02 00 00    	jb     ffffffff800043e0 <fmt.formatBuf__anon_2525+0xa60>
ffffffff80004139:	4c 39 fd             	cmp    %r15,%rbp
ffffffff8000413c:	75 c2                	jne    ffffffff80004100 <fmt.formatBuf__anon_2525+0x780>
ffffffff8000413e:	48 8b 44 24 40       	mov    0x40(%rsp),%rax
ffffffff80004143:	48 83 c0 01          	add    $0x1,%rax
ffffffff80004147:	4c 8b 5c 24 20       	mov    0x20(%rsp),%r11
ffffffff8000414c:	4c 39 d8             	cmp    %r11,%rax
ffffffff8000414f:	75 9d                	jne    ffffffff800040ee <fmt.formatBuf__anon_2525+0x76e>
ffffffff80004151:	48 8b 4c 24 38       	mov    0x38(%rsp),%rcx
ffffffff80004156:	4c 8b 21             	mov    (%rcx),%r12
ffffffff80004159:	4c 8b 69 08          	mov    0x8(%rcx),%r13
ffffffff8000415d:	48 8b 44 24 30       	mov    0x30(%rsp),%rax
ffffffff80004162:	48 85 db             	test   %rbx,%rbx
ffffffff80004165:	74 53                	je     ffffffff800041ba <fmt.formatBuf__anon_2525+0x83a>
ffffffff80004167:	48 89 44 24 30       	mov    %rax,0x30(%rsp)
ffffffff8000416c:	31 ed                	xor    %ebp,%ebp
ffffffff8000416e:	66 90                	xchg   %ax,%ax
ffffffff80004170:	48 89 d9             	mov    %rbx,%rcx
ffffffff80004173:	48 29 e9             	sub    %rbp,%rcx
ffffffff80004176:	0f 82 86 02 00 00    	jb     ffffffff80004402 <fmt.formatBuf__anon_2525+0xa82>
ffffffff8000417c:	49 8d 14 2e          	lea    (%r14,%rbp,1),%rdx
ffffffff80004180:	48 8d 7c 24 08       	lea    0x8(%rsp),%rdi
ffffffff80004185:	4c 89 e6             	mov    %r12,%rsi
ffffffff80004188:	41 ff d5             	call   *%r13
ffffffff8000418b:	0f b7 44 24 10       	movzwl 0x10(%rsp),%eax
ffffffff80004190:	66 85 c0             	test   %ax,%ax
ffffffff80004193:	0f 85 38 02 00 00    	jne    ffffffff800043d1 <fmt.formatBuf__anon_2525+0xa51>
ffffffff80004199:	48 03 6c 24 08       	add    0x8(%rsp),%rbp
ffffffff8000419e:	0f 82 3c 02 00 00    	jb     ffffffff800043e0 <fmt.formatBuf__anon_2525+0xa60>
ffffffff800041a4:	48 39 dd             	cmp    %rbx,%rbp
ffffffff800041a7:	75 c7                	jne    ffffffff80004170 <fmt.formatBuf__anon_2525+0x7f0>
ffffffff800041a9:	48 8b 44 24 38       	mov    0x38(%rsp),%rax
ffffffff800041ae:	4c 8b 20             	mov    (%rax),%r12
ffffffff800041b1:	4c 8b 68 08          	mov    0x8(%rax),%r13
ffffffff800041b5:	48 8b 44 24 30       	mov    0x30(%rsp),%rax
ffffffff800041ba:	48 83 f8 02          	cmp    $0x2,%rax
ffffffff800041be:	0f 82 0b 02 00 00    	jb     ffffffff800043cf <fmt.formatBuf__anon_2525+0xa4f>
ffffffff800041c4:	4d 85 ff             	test   %r15,%r15
ffffffff800041c7:	0f 84 02 02 00 00    	je     ffffffff800043cf <fmt.formatBuf__anon_2525+0xa4f>
ffffffff800041cd:	48 d1 e8             	shr    $1,%rax
ffffffff800041d0:	48 89 44 24 30       	mov    %rax,0x30(%rsp)
ffffffff800041d5:	45 31 f6             	xor    %r14d,%r14d
ffffffff800041d8:	48 8d 5c 24 08       	lea    0x8(%rsp),%rbx
ffffffff800041dd:	31 ed                	xor    %ebp,%ebp
ffffffff800041df:	90                   	nop
ffffffff800041e0:	4c 89 f9             	mov    %r15,%rcx
ffffffff800041e3:	48 29 e9             	sub    %rbp,%rcx
ffffffff800041e6:	0f 82 16 02 00 00    	jb     ffffffff80004402 <fmt.formatBuf__anon_2525+0xa82>
ffffffff800041ec:	48 8b 44 24 28       	mov    0x28(%rsp),%rax
ffffffff800041f1:	48 8d 14 28          	lea    (%rax,%rbp,1),%rdx
ffffffff800041f5:	48 89 df             	mov    %rbx,%rdi
ffffffff800041f8:	4c 89 e6             	mov    %r12,%rsi
ffffffff800041fb:	41 ff d5             	call   *%r13
ffffffff800041fe:	0f b7 44 24 10       	movzwl 0x10(%rsp),%eax
ffffffff80004203:	66 85 c0             	test   %ax,%ax
ffffffff80004206:	0f 85 c5 01 00 00    	jne    ffffffff800043d1 <fmt.formatBuf__anon_2525+0xa51>
ffffffff8000420c:	48 03 6c 24 08       	add    0x8(%rsp),%rbp
ffffffff80004211:	0f 82 c9 01 00 00    	jb     ffffffff800043e0 <fmt.formatBuf__anon_2525+0xa60>
ffffffff80004217:	4c 39 fd             	cmp    %r15,%rbp
ffffffff8000421a:	75 c4                	jne    ffffffff800041e0 <fmt.formatBuf__anon_2525+0x860>
ffffffff8000421c:	49 83 c6 01          	add    $0x1,%r14
ffffffff80004220:	31 c0                	xor    %eax,%eax
ffffffff80004222:	4c 3b 74 24 30       	cmp    0x30(%rsp),%r14
ffffffff80004227:	75 b4                	jne    ffffffff800041dd <fmt.formatBuf__anon_2525+0x85d>
ffffffff80004229:	e9 a3 01 00 00       	jmp    ffffffff800043d1 <fmt.formatBuf__anon_2525+0xa51>
ffffffff8000422e:	89 c6                	mov    %eax,%esi
ffffffff80004230:	81 e6 00 f8 1f 00    	and    $0x1ff800,%esi
ffffffff80004236:	81 fe 00 d8 00 00    	cmp    $0xd800,%esi
ffffffff8000423c:	0f 84 26 fd ff ff    	je     ffffffff80003f68 <fmt.formatBuf__anon_2525+0x5e8>
ffffffff80004242:	89 c6                	mov    %eax,%esi
ffffffff80004244:	81 e6 00 f0 11 00    	and    $0x11f000,%esi
ffffffff8000424a:	c1 ee 0c             	shr    $0xc,%esi
ffffffff8000424d:	81 ce e0 00 00 00    	or     $0xe0,%esi
ffffffff80004253:	81 fe ff 00 00 00    	cmp    $0xff,%esi
ffffffff80004259:	0f 87 d6 01 00 00    	ja     ffffffff80004435 <fmt.formatBuf__anon_2525+0xab5>
ffffffff8000425f:	40 88 74 24 04       	mov    %sil,0x4(%rsp)
ffffffff80004264:	89 c6                	mov    %eax,%esi
ffffffff80004266:	c1 ee 06             	shr    $0x6,%esi
ffffffff80004269:	40 80 e6 3f          	and    $0x3f,%sil
ffffffff8000426d:	40 80 ce 80          	or     $0x80,%sil
ffffffff80004271:	40 88 74 24 05       	mov    %sil,0x5(%rsp)
ffffffff80004276:	24 3f                	and    $0x3f,%al
ffffffff80004278:	0c 80                	or     $0x80,%al
ffffffff8000427a:	88 44 24 06          	mov    %al,0x6(%rsp)
ffffffff8000427e:	eb 69                	jmp    ffffffff800042e9 <fmt.formatBuf__anon_2525+0x969>
ffffffff80004280:	89 c6                	mov    %eax,%esi
ffffffff80004282:	c1 ee 12             	shr    $0x12,%esi
ffffffff80004285:	83 e6 07             	and    $0x7,%esi
ffffffff80004288:	40 80 ce f0          	or     $0xf0,%sil
ffffffff8000428c:	40 88 74 24 04       	mov    %sil,0x4(%rsp)
ffffffff80004291:	89 c6                	mov    %eax,%esi
ffffffff80004293:	c1 ee 0c             	shr    $0xc,%esi
ffffffff80004296:	40 80 e6 3f          	and    $0x3f,%sil
ffffffff8000429a:	40 80 ce 80          	or     $0x80,%sil
ffffffff8000429e:	40 88 74 24 05       	mov    %sil,0x5(%rsp)
ffffffff800042a3:	89 c6                	mov    %eax,%esi
ffffffff800042a5:	c1 ee 06             	shr    $0x6,%esi
ffffffff800042a8:	40 80 e6 3f          	and    $0x3f,%sil
ffffffff800042ac:	40 80 ce 80          	or     $0x80,%sil
ffffffff800042b0:	40 88 74 24 06       	mov    %sil,0x6(%rsp)
ffffffff800042b5:	24 3f                	and    $0x3f,%al
ffffffff800042b7:	0c 80                	or     $0x80,%al
ffffffff800042b9:	88 44 24 07          	mov    %al,0x7(%rsp)
ffffffff800042bd:	eb 2a                	jmp    ffffffff800042e9 <fmt.formatBuf__anon_2525+0x969>
ffffffff800042bf:	89 c6                	mov    %eax,%esi
ffffffff800042c1:	81 e6 c0 cf 1f 00    	and    $0x1fcfc0,%esi
ffffffff800042c7:	c1 ee 06             	shr    $0x6,%esi
ffffffff800042ca:	81 ce c0 00 00 00    	or     $0xc0,%esi
ffffffff800042d0:	81 fe ff 00 00 00    	cmp    $0xff,%esi
ffffffff800042d6:	0f 87 59 01 00 00    	ja     ffffffff80004435 <fmt.formatBuf__anon_2525+0xab5>
ffffffff800042dc:	40 88 74 24 04       	mov    %sil,0x4(%rsp)
ffffffff800042e1:	24 3f                	and    $0x3f,%al
ffffffff800042e3:	0c 80                	or     $0x80,%al
ffffffff800042e5:	88 44 24 05          	mov    %al,0x5(%rsp)
ffffffff800042e9:	41 80 f9 05          	cmp    $0x5,%r9b
ffffffff800042ed:	0f 83 fe 00 00 00    	jae    ffffffff800043f1 <fmt.formatBuf__anon_2525+0xa71>
ffffffff800042f3:	48 8d 44 24 04       	lea    0x4(%rsp),%rax
ffffffff800042f8:	48 89 44 24 28       	mov    %rax,0x28(%rsp)
ffffffff800042fd:	45 0f b6 f9          	movzbl %r9b,%r15d
ffffffff80004301:	0f b6 42 24          	movzbl 0x24(%rdx),%eax
ffffffff80004305:	a8 03                	test   $0x3,%al
ffffffff80004307:	0f 85 79 fc ff ff    	jne    ffffffff80003f86 <fmt.formatBuf__anon_2525+0x606>
ffffffff8000430d:	4c 8b 21             	mov    (%rcx),%r12
ffffffff80004310:	4c 8b 69 08          	mov    0x8(%rcx),%r13
ffffffff80004314:	48 85 db             	test   %rbx,%rbx
ffffffff80004317:	74 51                	je     ffffffff8000436a <fmt.formatBuf__anon_2525+0x9ea>
ffffffff80004319:	4c 89 5c 24 20       	mov    %r11,0x20(%rsp)
ffffffff8000431e:	31 ed                	xor    %ebp,%ebp
ffffffff80004320:	48 89 d9             	mov    %rbx,%rcx
ffffffff80004323:	48 29 e9             	sub    %rbp,%rcx
ffffffff80004326:	0f 82 d6 00 00 00    	jb     ffffffff80004402 <fmt.formatBuf__anon_2525+0xa82>
ffffffff8000432c:	49 8d 14 2e          	lea    (%r14,%rbp,1),%rdx
ffffffff80004330:	48 8d 7c 24 08       	lea    0x8(%rsp),%rdi
ffffffff80004335:	4c 89 e6             	mov    %r12,%rsi
ffffffff80004338:	41 ff d5             	call   *%r13
ffffffff8000433b:	0f b7 44 24 10       	movzwl 0x10(%rsp),%eax
ffffffff80004340:	66 85 c0             	test   %ax,%ax
ffffffff80004343:	0f 85 88 00 00 00    	jne    ffffffff800043d1 <fmt.formatBuf__anon_2525+0xa51>
ffffffff80004349:	48 03 6c 24 08       	add    0x8(%rsp),%rbp
ffffffff8000434e:	0f 82 8c 00 00 00    	jb     ffffffff800043e0 <fmt.formatBuf__anon_2525+0xa60>
ffffffff80004354:	48 39 dd             	cmp    %rbx,%rbp
ffffffff80004357:	75 c7                	jne    ffffffff80004320 <fmt.formatBuf__anon_2525+0x9a0>
ffffffff80004359:	48 8b 44 24 38       	mov    0x38(%rsp),%rax
ffffffff8000435e:	4c 8b 20             	mov    (%rax),%r12
ffffffff80004361:	4c 8b 68 08          	mov    0x8(%rax),%r13
ffffffff80004365:	4c 8b 5c 24 20       	mov    0x20(%rsp),%r11
ffffffff8000436a:	4d 85 ff             	test   %r15,%r15
ffffffff8000436d:	74 60                	je     ffffffff800043cf <fmt.formatBuf__anon_2525+0xa4f>
ffffffff8000436f:	49 83 fb 01          	cmp    $0x1,%r11
ffffffff80004373:	49 83 d3 00          	adc    $0x0,%r11
ffffffff80004377:	4c 89 5c 24 20       	mov    %r11,0x20(%rsp)
ffffffff8000437c:	45 31 f6             	xor    %r14d,%r14d
ffffffff8000437f:	48 8d 5c 24 08       	lea    0x8(%rsp),%rbx
ffffffff80004384:	31 ed                	xor    %ebp,%ebp
ffffffff80004386:	66 2e 0f 1f 84 00 00 	cs nopw 0x0(%rax,%rax,1)
ffffffff8000438d:	00 00 00 
ffffffff80004390:	4c 89 f9             	mov    %r15,%rcx
ffffffff80004393:	48 29 e9             	sub    %rbp,%rcx
ffffffff80004396:	72 6a                	jb     ffffffff80004402 <fmt.formatBuf__anon_2525+0xa82>
ffffffff80004398:	48 8b 44 24 28       	mov    0x28(%rsp),%rax
ffffffff8000439d:	48 8d 14 28          	lea    (%rax,%rbp,1),%rdx
ffffffff800043a1:	48 89 df             	mov    %rbx,%rdi
ffffffff800043a4:	4c 89 e6             	mov    %r12,%rsi
ffffffff800043a7:	41 ff d5             	call   *%r13
ffffffff800043aa:	0f b7 44 24 10       	movzwl 0x10(%rsp),%eax
ffffffff800043af:	66 85 c0             	test   %ax,%ax
ffffffff800043b2:	75 1d                	jne    ffffffff800043d1 <fmt.formatBuf__anon_2525+0xa51>
ffffffff800043b4:	48 03 6c 24 08       	add    0x8(%rsp),%rbp
ffffffff800043b9:	72 25                	jb     ffffffff800043e0 <fmt.formatBuf__anon_2525+0xa60>
ffffffff800043bb:	4c 39 fd             	cmp    %r15,%rbp
ffffffff800043be:	75 d0                	jne    ffffffff80004390 <fmt.formatBuf__anon_2525+0xa10>
ffffffff800043c0:	49 83 c6 01          	add    $0x1,%r14
ffffffff800043c4:	31 c0                	xor    %eax,%eax
ffffffff800043c6:	4c 3b 74 24 20       	cmp    0x20(%rsp),%r14
ffffffff800043cb:	75 b7                	jne    ffffffff80004384 <fmt.formatBuf__anon_2525+0xa04>
ffffffff800043cd:	eb 02                	jmp    ffffffff800043d1 <fmt.formatBuf__anon_2525+0xa51>
ffffffff800043cf:	31 c0                	xor    %eax,%eax
ffffffff800043d1:	48 83 c4 48          	add    $0x48,%rsp
ffffffff800043d5:	5b                   	pop    %rbx
ffffffff800043d6:	41 5c                	pop    %r12
ffffffff800043d8:	41 5d                	pop    %r13
ffffffff800043da:	41 5e                	pop    %r14
ffffffff800043dc:	41 5f                	pop    %r15
ffffffff800043de:	5d                   	pop    %rbp
ffffffff800043df:	c3                   	ret
ffffffff800043e0:	48 8d 3d 66 47 01 00 	lea    0x14766(%rip),%rdi        # ffffffff80018b4d <__anon_1411>
ffffffff800043e7:	be 10 00 00 00       	mov    $0x10,%esi
ffffffff800043ec:	e8 9f c8 ff ff       	call   ffffffff80000c90 <main.panic>
ffffffff800043f1:	48 8d 3d 96 47 01 00 	lea    0x14796(%rip),%rdi        # ffffffff80018b8e <__anon_1287>
ffffffff800043f8:	be 13 00 00 00       	mov    $0x13,%esi
ffffffff800043fd:	e8 8e c8 ff ff       	call   ffffffff80000c90 <main.panic>
ffffffff80004402:	48 8d 3d 1f 47 01 00 	lea    0x1471f(%rip),%rdi        # ffffffff80018b28 <__anon_1277>
ffffffff80004409:	be 24 00 00 00       	mov    $0x24,%esi
ffffffff8000440e:	e8 7d c8 ff ff       	call   ffffffff80000c90 <main.panic>
ffffffff80004413:	48 8d 3d 1a 48 01 00 	lea    0x1481a(%rip),%rdi        # ffffffff80018c34 <__anon_3419>
ffffffff8000441a:	be 18 00 00 00       	mov    $0x18,%esi
ffffffff8000441f:	e8 6c c8 ff ff       	call   ffffffff80000c90 <main.panic>
ffffffff80004424:	48 8d 3d d8 47 01 00 	lea    0x147d8(%rip),%rdi        # ffffffff80018c03 <__anon_3032>
ffffffff8000442b:	be 17 00 00 00       	mov    $0x17,%esi
ffffffff80004430:	e8 5b c8 ff ff       	call   ffffffff80000c90 <main.panic>
ffffffff80004435:	48 8d 3d 36 47 01 00 	lea    0x14736(%rip),%rdi        # ffffffff80018b72 <__anon_2841>
ffffffff8000443c:	be 1b 00 00 00       	mov    $0x1b,%esi
ffffffff80004441:	e8 4a c8 ff ff       	call   ffffffff80000c90 <main.panic>
ffffffff80004446:	66 2e 0f 1f 84 00 00 	cs nopw 0x0(%rax,%rax,1)
ffffffff8000444d:	00 00 00 

ffffffff80004450 <io.Writer.print__anon_2529>:
ffffffff80004450:	55                   	push   %rbp
ffffffff80004451:	41 57                	push   %r15
ffffffff80004453:	41 56                	push   %r14
ffffffff80004455:	41 55                	push   %r13
ffffffff80004457:	41 54                	push   %r12
ffffffff80004459:	53                   	push   %rbx
ffffffff8000445a:	48 83 ec 18          	sub    $0x18,%rsp
ffffffff8000445e:	49 89 f6             	mov    %rsi,%r14
ffffffff80004461:	4c 8b 3f             	mov    (%rdi),%r15
ffffffff80004464:	48 89 7c 24 10       	mov    %rdi,0x10(%rsp)
ffffffff80004469:	48 8b 6f 08          	mov    0x8(%rdi),%rbp
ffffffff8000446d:	31 db                	xor    %ebx,%ebx
ffffffff8000446f:	4c 8d 2d a0 48 01 00 	lea    0x148a0(%rip),%r13        # ffffffff80018d16 <__anon_3256>
ffffffff80004476:	49 89 e4             	mov    %rsp,%r12
ffffffff80004479:	0f 1f 80 00 00 00 00 	nopl   0x0(%rax)
ffffffff80004480:	48 83 fb 01          	cmp    $0x1,%rbx
ffffffff80004484:	0f 87 25 01 00 00    	ja     ffffffff800045af <io.Writer.print__anon_2529+0x15f>
ffffffff8000448a:	4a 8d 14 2b          	lea    (%rbx,%r13,1),%rdx
ffffffff8000448e:	48 89 d9             	mov    %rbx,%rcx
ffffffff80004491:	48 83 f1 01          	xor    $0x1,%rcx
ffffffff80004495:	4c 89 e7             	mov    %r12,%rdi
ffffffff80004498:	4c 89 fe             	mov    %r15,%rsi
ffffffff8000449b:	ff d5                	call   *%rbp
ffffffff8000449d:	0f b7 44 24 08       	movzwl 0x8(%rsp),%eax
ffffffff800044a2:	66 85 c0             	test   %ax,%ax
ffffffff800044a5:	75 27                	jne    ffffffff800044ce <io.Writer.print__anon_2529+0x7e>
ffffffff800044a7:	48 03 1c 24          	add    (%rsp),%rbx
ffffffff800044ab:	48 83 fb 01          	cmp    $0x1,%rbx
ffffffff800044af:	75 cf                	jne    ffffffff80004480 <io.Writer.print__anon_2529+0x30>
ffffffff800044b1:	49 8b 3e             	mov    (%r14),%rdi
ffffffff800044b4:	49 8b 76 08          	mov    0x8(%r14),%rsi
ffffffff800044b8:	48 8d 15 41 46 01 00 	lea    0x14641(%rip),%rdx        # ffffffff80018b00 <__anon_5249+0x9>
ffffffff800044bf:	48 8b 4c 24 10       	mov    0x10(%rsp),%rcx
ffffffff800044c4:	e8 b7 f4 ff ff       	call   ffffffff80003980 <fmt.formatBuf__anon_2525>
ffffffff800044c9:	66 85 c0             	test   %ax,%ax
ffffffff800044cc:	74 0f                	je     ffffffff800044dd <io.Writer.print__anon_2529+0x8d>
ffffffff800044ce:	48 83 c4 18          	add    $0x18,%rsp
ffffffff800044d2:	5b                   	pop    %rbx
ffffffff800044d3:	41 5c                	pop    %r12
ffffffff800044d5:	41 5d                	pop    %r13
ffffffff800044d7:	41 5e                	pop    %r14
ffffffff800044d9:	41 5f                	pop    %r15
ffffffff800044db:	5d                   	pop    %rbp
ffffffff800044dc:	c3                   	ret
ffffffff800044dd:	48 8b 44 24 10       	mov    0x10(%rsp),%rax
ffffffff800044e2:	4c 8b 30             	mov    (%rax),%r14
ffffffff800044e5:	4c 8b 60 08          	mov    0x8(%rax),%r12
ffffffff800044e9:	31 ed                	xor    %ebp,%ebp
ffffffff800044eb:	49 89 e7             	mov    %rsp,%r15
ffffffff800044ee:	66 90                	xchg   %ax,%ax
ffffffff800044f0:	48 83 fd 03          	cmp    $0x3,%rbp
ffffffff800044f4:	0f 87 b5 00 00 00    	ja     ffffffff800045af <io.Writer.print__anon_2529+0x15f>
ffffffff800044fa:	4a 8d 14 2d 04 00 00 	lea    0x4(,%r13,1),%rdx
ffffffff80004501:	00 
ffffffff80004502:	48 01 ea             	add    %rbp,%rdx
ffffffff80004505:	48 89 e9             	mov    %rbp,%rcx
ffffffff80004508:	48 83 f1 03          	xor    $0x3,%rcx
ffffffff8000450c:	4c 89 ff             	mov    %r15,%rdi
ffffffff8000450f:	4c 89 f6             	mov    %r14,%rsi
ffffffff80004512:	41 ff d4             	call   *%r12
ffffffff80004515:	0f b7 44 24 08       	movzwl 0x8(%rsp),%eax
ffffffff8000451a:	66 85 c0             	test   %ax,%ax
ffffffff8000451d:	75 af                	jne    ffffffff800044ce <io.Writer.print__anon_2529+0x7e>
ffffffff8000451f:	48 03 2c 24          	add    (%rsp),%rbp
ffffffff80004523:	0f 82 97 00 00 00    	jb     ffffffff800045c0 <io.Writer.print__anon_2529+0x170>
ffffffff80004529:	48 83 fd 03          	cmp    $0x3,%rbp
ffffffff8000452d:	75 c1                	jne    ffffffff800044f0 <io.Writer.print__anon_2529+0xa0>
ffffffff8000452f:	c7 04 24 69 64 74 00 	movl   $0x746469,(%rsp)
ffffffff80004536:	48 8d 15 c3 45 01 00 	lea    0x145c3(%rip),%rdx        # ffffffff80018b00 <__anon_5249+0x9>
ffffffff8000453d:	48 89 e7             	mov    %rsp,%rdi
ffffffff80004540:	be 03 00 00 00       	mov    $0x3,%esi
ffffffff80004545:	48 8b 4c 24 10       	mov    0x10(%rsp),%rcx
ffffffff8000454a:	e8 31 f4 ff ff       	call   ffffffff80003980 <fmt.formatBuf__anon_2525>
ffffffff8000454f:	66 85 c0             	test   %ax,%ax
ffffffff80004552:	0f 85 76 ff ff ff    	jne    ffffffff800044ce <io.Writer.print__anon_2529+0x7e>
ffffffff80004558:	48 8b 44 24 10       	mov    0x10(%rsp),%rax
ffffffff8000455d:	4c 8b 30             	mov    (%rax),%r14
ffffffff80004560:	4c 8b 78 08          	mov    0x8(%rax),%r15
ffffffff80004564:	45 31 e4             	xor    %r12d,%r12d
ffffffff80004567:	48 89 e3             	mov    %rsp,%rbx
ffffffff8000456a:	66 0f 1f 44 00 00    	nopw   0x0(%rax,%rax,1)
ffffffff80004570:	49 83 fc 03          	cmp    $0x3,%r12
ffffffff80004574:	77 39                	ja     ffffffff800045af <io.Writer.print__anon_2529+0x15f>
ffffffff80004576:	4b 8d 14 2c          	lea    (%r12,%r13,1),%rdx
ffffffff8000457a:	48 83 c2 0a          	add    $0xa,%rdx
ffffffff8000457e:	4c 89 e1             	mov    %r12,%rcx
ffffffff80004581:	48 83 f1 03          	xor    $0x3,%rcx
ffffffff80004585:	48 89 df             	mov    %rbx,%rdi
ffffffff80004588:	4c 89 f6             	mov    %r14,%rsi
ffffffff8000458b:	41 ff d7             	call   *%r15
ffffffff8000458e:	0f b7 44 24 08       	movzwl 0x8(%rsp),%eax
ffffffff80004593:	66 85 c0             	test   %ax,%ax
ffffffff80004596:	0f 85 32 ff ff ff    	jne    ffffffff800044ce <io.Writer.print__anon_2529+0x7e>
ffffffff8000459c:	4c 03 24 24          	add    (%rsp),%r12
ffffffff800045a0:	72 1e                	jb     ffffffff800045c0 <io.Writer.print__anon_2529+0x170>
ffffffff800045a2:	31 c0                	xor    %eax,%eax
ffffffff800045a4:	49 83 fc 03          	cmp    $0x3,%r12
ffffffff800045a8:	75 c6                	jne    ffffffff80004570 <io.Writer.print__anon_2529+0x120>
ffffffff800045aa:	e9 1f ff ff ff       	jmp    ffffffff800044ce <io.Writer.print__anon_2529+0x7e>
ffffffff800045af:	48 8d 3d 72 45 01 00 	lea    0x14572(%rip),%rdi        # ffffffff80018b28 <__anon_1277>
ffffffff800045b6:	be 24 00 00 00       	mov    $0x24,%esi
ffffffff800045bb:	e8 d0 c6 ff ff       	call   ffffffff80000c90 <main.panic>
ffffffff800045c0:	48 8d 3d 86 45 01 00 	lea    0x14586(%rip),%rdi        # ffffffff80018b4d <__anon_1411>
ffffffff800045c7:	be 10 00 00 00       	mov    $0x10,%esi
ffffffff800045cc:	e8 bf c6 ff ff       	call   ffffffff80000c90 <main.panic>
ffffffff800045d1:	66 2e 0f 1f 84 00 00 	cs nopw 0x0(%rax,%rax,1)
ffffffff800045d8:	00 00 00 
ffffffff800045db:	0f 1f 44 00 00       	nopl   0x0(%rax,%rax,1)

ffffffff800045e0 <fmt.formatType__anon_2576>:
ffffffff800045e0:	48 83 ec 48          	sub    $0x48,%rsp
ffffffff800045e4:	48 89 f1             	mov    %rsi,%rcx
ffffffff800045e7:	48 b8 aa aa aa aa aa 	movabs $0xaaaaaaaaaaaaaaaa,%rax
ffffffff800045ee:	aa aa aa 
ffffffff800045f1:	48 89 44 24 38       	mov    %rax,0x38(%rsp)
ffffffff800045f6:	48 89 44 24 30       	mov    %rax,0x30(%rsp)
ffffffff800045fb:	48 89 44 24 28       	mov    %rax,0x28(%rsp)
ffffffff80004600:	48 89 44 24 20       	mov    %rax,0x20(%rsp)
ffffffff80004605:	48 89 44 24 18       	mov    %rax,0x18(%rsp)
ffffffff8000460a:	48 89 44 24 10       	mov    %rax,0x10(%rsp)
ffffffff8000460f:	48 89 44 24 08       	mov    %rax,0x8(%rsp)
ffffffff80004614:	48 89 04 24          	mov    %rax,(%rsp)
ffffffff80004618:	c6 44 24 40 aa       	movb   $0xaa,0x40(%rsp)
ffffffff8000461d:	41 b8 41 00 00 00    	mov    $0x41,%r8d
ffffffff80004623:	48 83 ff 64          	cmp    $0x64,%rdi
ffffffff80004627:	72 6b                	jb     ffffffff80004694 <fmt.formatType__anon_2576+0xb4>
ffffffff80004629:	be 41 00 00 00       	mov    $0x41,%esi
ffffffff8000462e:	4c 8d 0d 18 46 01 00 	lea    0x14618(%rip),%r9        # ffffffff80018c4d <__anon_6068>
ffffffff80004635:	49 ba c3 f5 28 5c 8f 	movabs $0x28f5c28f5c28f5c3,%r10
ffffffff8000463c:	c2 f5 28 
ffffffff8000463f:	90                   	nop
ffffffff80004640:	49 89 f0             	mov    %rsi,%r8
ffffffff80004643:	49 83 e8 02          	sub    $0x2,%r8
ffffffff80004647:	0f 82 83 00 00 00    	jb     ffffffff800046d0 <fmt.formatType__anon_2576+0xf0>
ffffffff8000464d:	48 89 f8             	mov    %rdi,%rax
ffffffff80004650:	48 c1 e8 02          	shr    $0x2,%rax
ffffffff80004654:	49 f7 e2             	mul    %r10
ffffffff80004657:	48 c1 ea 02          	shr    $0x2,%rdx
ffffffff8000465b:	48 6b c2 64          	imul   $0x64,%rdx,%rax
ffffffff8000465f:	49 89 fb             	mov    %rdi,%r11
ffffffff80004662:	49 29 c3             	sub    %rax,%r11
ffffffff80004665:	43 0f b7 04 59       	movzwl (%r9,%r11,2),%eax
ffffffff8000466a:	66 42 89 04 04       	mov    %ax,(%rsp,%r8,1)
ffffffff8000466f:	48 83 c6 fe          	add    $0xfffffffffffffffe,%rsi
ffffffff80004673:	48 81 ff 0f 27 00 00 	cmp    $0x270f,%rdi
ffffffff8000467a:	48 89 d7             	mov    %rdx,%rdi
ffffffff8000467d:	77 c1                	ja     ffffffff80004640 <fmt.formatType__anon_2576+0x60>
ffffffff8000467f:	48 83 fa 0a          	cmp    $0xa,%rdx
ffffffff80004683:	73 18                	jae    ffffffff8000469d <fmt.formatType__anon_2576+0xbd>
ffffffff80004685:	49 83 e8 01          	sub    $0x1,%r8
ffffffff80004689:	72 45                	jb     ffffffff800046d0 <fmt.formatType__anon_2576+0xf0>
ffffffff8000468b:	80 ca 30             	or     $0x30,%dl
ffffffff8000468e:	42 88 14 04          	mov    %dl,(%rsp,%r8,1)
ffffffff80004692:	eb 1f                	jmp    ffffffff800046b3 <fmt.formatType__anon_2576+0xd3>
ffffffff80004694:	48 89 fa             	mov    %rdi,%rdx
ffffffff80004697:	48 83 fa 0a          	cmp    $0xa,%rdx
ffffffff8000469b:	72 e8                	jb     ffffffff80004685 <fmt.formatType__anon_2576+0xa5>
ffffffff8000469d:	49 83 e8 02          	sub    $0x2,%r8
ffffffff800046a1:	72 2d                	jb     ffffffff800046d0 <fmt.formatType__anon_2576+0xf0>
ffffffff800046a3:	48 8d 05 a3 45 01 00 	lea    0x145a3(%rip),%rax        # ffffffff80018c4d <__anon_6068>
ffffffff800046aa:	0f b7 04 50          	movzwl (%rax,%rdx,2),%eax
ffffffff800046ae:	66 42 89 04 04       	mov    %ax,(%rsp,%r8,1)
ffffffff800046b3:	be 41 00 00 00       	mov    $0x41,%esi
ffffffff800046b8:	4c 29 c6             	sub    %r8,%rsi
ffffffff800046bb:	4a 8d 3c 04          	lea    (%rsp,%r8,1),%rdi
ffffffff800046bf:	48 8d 15 3a 44 01 00 	lea    0x1443a(%rip),%rdx        # ffffffff80018b00 <__anon_5249+0x9>
ffffffff800046c6:	e8 b5 f2 ff ff       	call   ffffffff80003980 <fmt.formatBuf__anon_2525>
ffffffff800046cb:	48 83 c4 48          	add    $0x48,%rsp
ffffffff800046cf:	c3                   	ret
ffffffff800046d0:	48 8d 3d 76 44 01 00 	lea    0x14476(%rip),%rdi        # ffffffff80018b4d <__anon_1411>
ffffffff800046d7:	be 10 00 00 00       	mov    $0x10,%esi
ffffffff800046dc:	e8 af c5 ff ff       	call   ffffffff80000c90 <main.panic>
ffffffff800046e1:	cc                   	int3
ffffffff800046e2:	cc                   	int3
ffffffff800046e3:	cc                   	int3
ffffffff800046e4:	cc                   	int3
ffffffff800046e5:	cc                   	int3
ffffffff800046e6:	cc                   	int3
ffffffff800046e7:	cc                   	int3
ffffffff800046e8:	cc                   	int3
ffffffff800046e9:	cc                   	int3
ffffffff800046ea:	cc                   	int3
ffffffff800046eb:	cc                   	int3
ffffffff800046ec:	cc                   	int3
ffffffff800046ed:	cc                   	int3
ffffffff800046ee:	cc                   	int3
ffffffff800046ef:	cc                   	int3

ffffffff800046f0 <log.scoped(.main).err__anon_1107>:
ffffffff800046f0:	48 83 ec 18          	sub    $0x18,%rsp
ffffffff800046f4:	48 8d 05 d1 44 01 00 	lea    0x144d1(%rip),%rax        # ffffffff80018bcc <__anon_3455>
ffffffff800046fb:	48 89 44 24 08       	mov    %rax,0x8(%rsp)
ffffffff80004700:	48 c7 44 24 10 05 00 	movq   $0x5,0x10(%rsp)
ffffffff80004707:	00 00 
ffffffff80004709:	48 8d 3d 60 69 01 00 	lea    0x16960(%rip),%rdi        # ffffffff8001b070 <x64.tss.tss_iopb+0x70>
ffffffff80004710:	48 8d 74 24 08       	lea    0x8(%rsp),%rsi
ffffffff80004715:	e8 b6 ed ff ff       	call   ffffffff800034d0 <io.Writer.print__anon_2200>
ffffffff8000471a:	66 85 c0             	test   %ax,%ax
ffffffff8000471d:	0f 85 84 00 00 00    	jne    ffffffff800047a7 <log.scoped(.main).err__anon_1107+0xb7>
ffffffff80004723:	66 ba f8 03          	mov    $0x3f8,%dx
ffffffff80004727:	b0 66                	mov    $0x66,%al
ffffffff80004729:	ee                   	out    %al,(%dx)
ffffffff8000472a:	b0 72                	mov    $0x72,%al
ffffffff8000472c:	ee                   	out    %al,(%dx)
ffffffff8000472d:	b0 61                	mov    $0x61,%al
ffffffff8000472f:	ee                   	out    %al,(%dx)
ffffffff80004730:	b0 6d                	mov    $0x6d,%al
ffffffff80004732:	ee                   	out    %al,(%dx)
ffffffff80004733:	b0 65                	mov    $0x65,%al
ffffffff80004735:	ee                   	out    %al,(%dx)
ffffffff80004736:	b0 20                	mov    $0x20,%al
ffffffff80004738:	ee                   	out    %al,(%dx)
ffffffff80004739:	b0 62                	mov    $0x62,%al
ffffffff8000473b:	ee                   	out    %al,(%dx)
ffffffff8000473c:	b0 75                	mov    $0x75,%al
ffffffff8000473e:	ee                   	out    %al,(%dx)
ffffffff8000473f:	b0 66                	mov    $0x66,%al
ffffffff80004741:	ee                   	out    %al,(%dx)
ffffffff80004742:	b0 66                	mov    $0x66,%al
ffffffff80004744:	ee                   	out    %al,(%dx)
ffffffff80004745:	b0 65                	mov    $0x65,%al
ffffffff80004747:	ee                   	out    %al,(%dx)
ffffffff80004748:	b0 72                	mov    $0x72,%al
ffffffff8000474a:	ee                   	out    %al,(%dx)
ffffffff8000474b:	b0 20                	mov    $0x20,%al
ffffffff8000474d:	ee                   	out    %al,(%dx)
ffffffff8000474e:	b0 72                	mov    $0x72,%al
ffffffff80004750:	ee                   	out    %al,(%dx)
ffffffff80004751:	b0 65                	mov    $0x65,%al
ffffffff80004753:	ee                   	out    %al,(%dx)
ffffffff80004754:	b0 73                	mov    $0x73,%al
ffffffff80004756:	ee                   	out    %al,(%dx)
ffffffff80004757:	b0 70                	mov    $0x70,%al
ffffffff80004759:	ee                   	out    %al,(%dx)
ffffffff8000475a:	b0 6f                	mov    $0x6f,%al
ffffffff8000475c:	ee                   	out    %al,(%dx)
ffffffff8000475d:	b0 6e                	mov    $0x6e,%al
ffffffff8000475f:	ee                   	out    %al,(%dx)
ffffffff80004760:	b0 73                	mov    $0x73,%al
ffffffff80004762:	ee                   	out    %al,(%dx)
ffffffff80004763:	b0 65                	mov    $0x65,%al
ffffffff80004765:	ee                   	out    %al,(%dx)
ffffffff80004766:	b0 20                	mov    $0x20,%al
ffffffff80004768:	ee                   	out    %al,(%dx)
ffffffff80004769:	b0 68                	mov    $0x68,%al
ffffffff8000476b:	ee                   	out    %al,(%dx)
ffffffff8000476c:	b0 61                	mov    $0x61,%al
ffffffff8000476e:	ee                   	out    %al,(%dx)
ffffffff8000476f:	b0 64                	mov    $0x64,%al
ffffffff80004771:	ee                   	out    %al,(%dx)
ffffffff80004772:	b0 20                	mov    $0x20,%al
ffffffff80004774:	ee                   	out    %al,(%dx)
ffffffff80004775:	b0 6e                	mov    $0x6e,%al
ffffffff80004777:	ee                   	out    %al,(%dx)
ffffffff80004778:	b0 6f                	mov    $0x6f,%al
ffffffff8000477a:	ee                   	out    %al,(%dx)
ffffffff8000477b:	b0 20                	mov    $0x20,%al
ffffffff8000477d:	ee                   	out    %al,(%dx)
ffffffff8000477e:	b0 66                	mov    $0x66,%al
ffffffff80004780:	ee                   	out    %al,(%dx)
ffffffff80004781:	b0 72                	mov    $0x72,%al
ffffffff80004783:	ee                   	out    %al,(%dx)
ffffffff80004784:	b0 61                	mov    $0x61,%al
ffffffff80004786:	ee                   	out    %al,(%dx)
ffffffff80004787:	b0 6d                	mov    $0x6d,%al
ffffffff80004789:	ee                   	out    %al,(%dx)
ffffffff8000478a:	b0 65                	mov    $0x65,%al
ffffffff8000478c:	ee                   	out    %al,(%dx)
ffffffff8000478d:	b0 62                	mov    $0x62,%al
ffffffff8000478f:	ee                   	out    %al,(%dx)
ffffffff80004790:	b0 75                	mov    $0x75,%al
ffffffff80004792:	ee                   	out    %al,(%dx)
ffffffff80004793:	b0 66                	mov    $0x66,%al
ffffffff80004795:	ee                   	out    %al,(%dx)
ffffffff80004796:	b0 66                	mov    $0x66,%al
ffffffff80004798:	ee                   	out    %al,(%dx)
ffffffff80004799:	b0 65                	mov    $0x65,%al
ffffffff8000479b:	ee                   	out    %al,(%dx)
ffffffff8000479c:	b0 72                	mov    $0x72,%al
ffffffff8000479e:	ee                   	out    %al,(%dx)
ffffffff8000479f:	b0 73                	mov    $0x73,%al
ffffffff800047a1:	ee                   	out    %al,(%dx)
ffffffff800047a2:	48 83 c4 18          	add    $0x18,%rsp
ffffffff800047a6:	c3                   	ret
ffffffff800047a7:	48 8d 3d 73 44 01 00 	lea    0x14473(%rip),%rdi        # ffffffff80018c21 <__anon_3293>
ffffffff800047ae:	be 12 00 00 00       	mov    $0x12,%esi
ffffffff800047b3:	e8 d8 c4 ff ff       	call   ffffffff80000c90 <main.panic>
ffffffff800047b8:	0f 1f 84 00 00 00 00 	nopl   0x0(%rax,%rax,1)
ffffffff800047bf:	00 

ffffffff800047c0 <log.scoped(.idt).err__anon_2217>:
ffffffff800047c0:	41 57                	push   %r15
ffffffff800047c2:	41 56                	push   %r14
ffffffff800047c4:	41 54                	push   %r12
ffffffff800047c6:	53                   	push   %rbx
ffffffff800047c7:	48 83 ec 58          	sub    $0x58,%rsp
ffffffff800047cb:	48 89 fb             	mov    %rdi,%rbx
ffffffff800047ce:	48 8d 05 f7 43 01 00 	lea    0x143f7(%rip),%rax        # ffffffff80018bcc <__anon_3455>
ffffffff800047d5:	48 89 44 24 48       	mov    %rax,0x48(%rsp)
ffffffff800047da:	48 c7 44 24 50 05 00 	movq   $0x5,0x50(%rsp)
ffffffff800047e1:	00 00 
ffffffff800047e3:	48 8d 3d 86 68 01 00 	lea    0x16886(%rip),%rdi        # ffffffff8001b070 <x64.tss.tss_iopb+0x70>
ffffffff800047ea:	48 8d 74 24 48       	lea    0x48(%rsp),%rsi
ffffffff800047ef:	e8 5c fc ff ff       	call   ffffffff80004450 <io.Writer.print__anon_2529>
ffffffff800047f4:	66 85 c0             	test   %ax,%ax
ffffffff800047f7:	0f 85 00 08 00 00    	jne    ffffffff80004ffd <log.scoped(.idt).err__anon_2217+0x83d>
ffffffff800047fd:	66 ba f8 03          	mov    $0x3f8,%dx
ffffffff80004801:	b0 70                	mov    $0x70,%al
ffffffff80004803:	ee                   	out    %al,(%dx)
ffffffff80004804:	b0 61                	mov    $0x61,%al
ffffffff80004806:	ee                   	out    %al,(%dx)
ffffffff80004807:	b0 67                	mov    $0x67,%al
ffffffff80004809:	ee                   	out    %al,(%dx)
ffffffff8000480a:	b0 65                	mov    $0x65,%al
ffffffff8000480c:	ee                   	out    %al,(%dx)
ffffffff8000480d:	b0 20                	mov    $0x20,%al
ffffffff8000480f:	ee                   	out    %al,(%dx)
ffffffff80004810:	b0 66                	mov    $0x66,%al
ffffffff80004812:	ee                   	out    %al,(%dx)
ffffffff80004813:	b0 61                	mov    $0x61,%al
ffffffff80004815:	ee                   	out    %al,(%dx)
ffffffff80004816:	b0 75                	mov    $0x75,%al
ffffffff80004818:	ee                   	out    %al,(%dx)
ffffffff80004819:	b0 6c                	mov    $0x6c,%al
ffffffff8000481b:	ee                   	out    %al,(%dx)
ffffffff8000481c:	b0 74                	mov    $0x74,%al
ffffffff8000481e:	ee                   	out    %al,(%dx)
ffffffff8000481f:	b0 21                	mov    $0x21,%al
ffffffff80004821:	ee                   	out    %al,(%dx)
ffffffff80004822:	b0 20                	mov    $0x20,%al
ffffffff80004824:	ee                   	out    %al,(%dx)
ffffffff80004825:	b0 41                	mov    $0x41,%al
ffffffff80004827:	ee                   	out    %al,(%dx)
ffffffff80004828:	b0 74                	mov    $0x74,%al
ffffffff8000482a:	ee                   	out    %al,(%dx)
ffffffff8000482b:	b0 20                	mov    $0x20,%al
ffffffff8000482d:	ee                   	out    %al,(%dx)
ffffffff8000482e:	b0 61                	mov    $0x61,%al
ffffffff80004830:	ee                   	out    %al,(%dx)
ffffffff80004831:	b0 64                	mov    $0x64,%al
ffffffff80004833:	ee                   	out    %al,(%dx)
ffffffff80004834:	b0 64                	mov    $0x64,%al
ffffffff80004836:	ee                   	out    %al,(%dx)
ffffffff80004837:	b0 72                	mov    $0x72,%al
ffffffff80004839:	ee                   	out    %al,(%dx)
ffffffff8000483a:	b0 65                	mov    $0x65,%al
ffffffff8000483c:	ee                   	out    %al,(%dx)
ffffffff8000483d:	b0 73                	mov    $0x73,%al
ffffffff8000483f:	ee                   	out    %al,(%dx)
ffffffff80004840:	b0 73                	mov    $0x73,%al
ffffffff80004842:	ee                   	out    %al,(%dx)
ffffffff80004843:	b0 3a                	mov    $0x3a,%al
ffffffff80004845:	ee                   	out    %al,(%dx)
ffffffff80004846:	b0 20                	mov    $0x20,%al
ffffffff80004848:	ee                   	out    %al,(%dx)
ffffffff80004849:	b0 30                	mov    $0x30,%al
ffffffff8000484b:	ee                   	out    %al,(%dx)
ffffffff8000484c:	b0 78                	mov    $0x78,%al
ffffffff8000484e:	ee                   	out    %al,(%dx)
ffffffff8000484f:	48 8b 03             	mov    (%rbx),%rax
ffffffff80004852:	49 be aa aa aa aa aa 	movabs $0xaaaaaaaaaaaaaaaa,%r14
ffffffff80004859:	aa aa aa 
ffffffff8000485c:	4c 89 74 24 38       	mov    %r14,0x38(%rsp)
ffffffff80004861:	4c 89 74 24 30       	mov    %r14,0x30(%rsp)
ffffffff80004866:	4c 89 74 24 28       	mov    %r14,0x28(%rsp)
ffffffff8000486b:	4c 89 74 24 20       	mov    %r14,0x20(%rsp)
ffffffff80004870:	4c 89 74 24 18       	mov    %r14,0x18(%rsp)
ffffffff80004875:	4c 89 74 24 10       	mov    %r14,0x10(%rsp)
ffffffff8000487a:	4c 89 74 24 08       	mov    %r14,0x8(%rsp)
ffffffff8000487f:	4c 89 34 24          	mov    %r14,(%rsp)
ffffffff80004883:	c6 44 24 40 aa       	movb   $0xaa,0x40(%rsp)
ffffffff80004888:	31 f6                	xor    %esi,%esi
ffffffff8000488a:	48 89 c1             	mov    %rax,%rcx
ffffffff8000488d:	0f 1f 00             	nopl   (%rax)
ffffffff80004890:	89 c2                	mov    %eax,%edx
ffffffff80004892:	80 e2 0f             	and    $0xf,%dl
ffffffff80004895:	8d 7a 30             	lea    0x30(%rdx),%edi
ffffffff80004898:	44 8d 42 57          	lea    0x57(%rdx),%r8d
ffffffff8000489c:	80 fa 0a             	cmp    $0xa,%dl
ffffffff8000489f:	40 0f b6 d7          	movzbl %dil,%edx
ffffffff800048a3:	41 0f b6 f8          	movzbl %r8b,%edi
ffffffff800048a7:	0f 42 fa             	cmovb  %edx,%edi
ffffffff800048aa:	40 88 7c 34 40       	mov    %dil,0x40(%rsp,%rsi,1)
ffffffff800048af:	48 c1 e9 04          	shr    $0x4,%rcx
ffffffff800048b3:	48 83 c6 ff          	add    $0xffffffffffffffff,%rsi
ffffffff800048b7:	48 83 f8 0f          	cmp    $0xf,%rax
ffffffff800048bb:	48 89 c8             	mov    %rcx,%rax
ffffffff800048be:	77 d0                	ja     ffffffff80004890 <log.scoped(.idt).err__anon_2217+0xd0>
ffffffff800048c0:	48 8d 3c 34          	lea    (%rsp,%rsi,1),%rdi
ffffffff800048c4:	48 83 c7 41          	add    $0x41,%rdi
ffffffff800048c8:	48 f7 de             	neg    %rsi
ffffffff800048cb:	48 8d 15 2e 42 01 00 	lea    0x1422e(%rip),%rdx        # ffffffff80018b00 <__anon_5249+0x9>
ffffffff800048d2:	48 8d 0d 97 67 01 00 	lea    0x16797(%rip),%rcx        # ffffffff8001b070 <x64.tss.tss_iopb+0x70>
ffffffff800048d9:	e8 a2 f0 ff ff       	call   ffffffff80003980 <fmt.formatBuf__anon_2525>
ffffffff800048de:	66 85 c0             	test   %ax,%ax
ffffffff800048e1:	0f 85 16 07 00 00    	jne    ffffffff80004ffd <log.scoped(.idt).err__anon_2217+0x83d>
ffffffff800048e7:	66 ba f8 03          	mov    $0x3f8,%dx
ffffffff800048eb:	b0 20                	mov    $0x20,%al
ffffffff800048ed:	ee                   	out    %al,(%dx)
ffffffff800048ee:	b0 77                	mov    $0x77,%al
ffffffff800048f0:	ee                   	out    %al,(%dx)
ffffffff800048f1:	b0 69                	mov    $0x69,%al
ffffffff800048f3:	ee                   	out    %al,(%dx)
ffffffff800048f4:	b0 74                	mov    $0x74,%al
ffffffff800048f6:	ee                   	out    %al,(%dx)
ffffffff800048f7:	b0 68                	mov    $0x68,%al
ffffffff800048f9:	ee                   	out    %al,(%dx)
ffffffff800048fa:	b0 20                	mov    $0x20,%al
ffffffff800048fc:	ee                   	out    %al,(%dx)
ffffffff800048fd:	b0 65                	mov    $0x65,%al
ffffffff800048ff:	ee                   	out    %al,(%dx)
ffffffff80004900:	b0 72                	mov    $0x72,%al
ffffffff80004902:	ee                   	out    %al,(%dx)
ffffffff80004903:	b0 72                	mov    $0x72,%al
ffffffff80004905:	ee                   	out    %al,(%dx)
ffffffff80004906:	b0 6f                	mov    $0x6f,%al
ffffffff80004908:	ee                   	out    %al,(%dx)
ffffffff80004909:	b0 72                	mov    $0x72,%al
ffffffff8000490b:	ee                   	out    %al,(%dx)
ffffffff8000490c:	b0 20                	mov    $0x20,%al
ffffffff8000490e:	ee                   	out    %al,(%dx)
ffffffff8000490f:	b0 63                	mov    $0x63,%al
ffffffff80004911:	ee                   	out    %al,(%dx)
ffffffff80004912:	b0 6f                	mov    $0x6f,%al
ffffffff80004914:	ee                   	out    %al,(%dx)
ffffffff80004915:	b0 64                	mov    $0x64,%al
ffffffff80004917:	ee                   	out    %al,(%dx)
ffffffff80004918:	b0 65                	mov    $0x65,%al
ffffffff8000491a:	ee                   	out    %al,(%dx)
ffffffff8000491b:	b0 3a                	mov    $0x3a,%al
ffffffff8000491d:	ee                   	out    %al,(%dx)
ffffffff8000491e:	b0 20                	mov    $0x20,%al
ffffffff80004920:	ee                   	out    %al,(%dx)
ffffffff80004921:	4c 8b 7b 08          	mov    0x8(%rbx),%r15
ffffffff80004925:	b0 78                	mov    $0x78,%al
ffffffff80004927:	ee                   	out    %al,(%dx)
ffffffff80004928:	b0 36                	mov    $0x36,%al
ffffffff8000492a:	ee                   	out    %al,(%dx)
ffffffff8000492b:	b0 34                	mov    $0x34,%al
ffffffff8000492d:	ee                   	out    %al,(%dx)
ffffffff8000492e:	b0 2e                	mov    $0x2e,%al
ffffffff80004930:	ee                   	out    %al,(%dx)
ffffffff80004931:	b0 69                	mov    $0x69,%al
ffffffff80004933:	ee                   	out    %al,(%dx)
ffffffff80004934:	b0 64                	mov    $0x64,%al
ffffffff80004936:	ee                   	out    %al,(%dx)
ffffffff80004937:	b0 74                	mov    $0x74,%al
ffffffff80004939:	ee                   	out    %al,(%dx)
ffffffff8000493a:	b0 2e                	mov    $0x2e,%al
ffffffff8000493c:	ee                   	out    %al,(%dx)
ffffffff8000493d:	b0 50                	mov    $0x50,%al
ffffffff8000493f:	ee                   	out    %al,(%dx)
ffffffff80004940:	b0 61                	mov    $0x61,%al
ffffffff80004942:	ee                   	out    %al,(%dx)
ffffffff80004943:	b0 67                	mov    $0x67,%al
ffffffff80004945:	ee                   	out    %al,(%dx)
ffffffff80004946:	b0 65                	mov    $0x65,%al
ffffffff80004948:	ee                   	out    %al,(%dx)
ffffffff80004949:	b0 46                	mov    $0x46,%al
ffffffff8000494b:	ee                   	out    %al,(%dx)
ffffffff8000494c:	b0 61                	mov    $0x61,%al
ffffffff8000494e:	ee                   	out    %al,(%dx)
ffffffff8000494f:	b0 75                	mov    $0x75,%al
ffffffff80004951:	ee                   	out    %al,(%dx)
ffffffff80004952:	b0 6c                	mov    $0x6c,%al
ffffffff80004954:	ee                   	out    %al,(%dx)
ffffffff80004955:	b0 74                	mov    $0x74,%al
ffffffff80004957:	ee                   	out    %al,(%dx)
ffffffff80004958:	b0 45                	mov    $0x45,%al
ffffffff8000495a:	ee                   	out    %al,(%dx)
ffffffff8000495b:	b0 72                	mov    $0x72,%al
ffffffff8000495d:	ee                   	out    %al,(%dx)
ffffffff8000495e:	b0 72                	mov    $0x72,%al
ffffffff80004960:	ee                   	out    %al,(%dx)
ffffffff80004961:	b0 6f                	mov    $0x6f,%al
ffffffff80004963:	ee                   	out    %al,(%dx)
ffffffff80004964:	b0 72                	mov    $0x72,%al
ffffffff80004966:	ee                   	out    %al,(%dx)
ffffffff80004967:	b0 43                	mov    $0x43,%al
ffffffff80004969:	ee                   	out    %al,(%dx)
ffffffff8000496a:	b0 6f                	mov    $0x6f,%al
ffffffff8000496c:	ee                   	out    %al,(%dx)
ffffffff8000496d:	b0 64                	mov    $0x64,%al
ffffffff8000496f:	ee                   	out    %al,(%dx)
ffffffff80004970:	b0 65                	mov    $0x65,%al
ffffffff80004972:	ee                   	out    %al,(%dx)
ffffffff80004973:	b0 7b                	mov    $0x7b,%al
ffffffff80004975:	ee                   	out    %al,(%dx)
ffffffff80004976:	b0 20                	mov    $0x20,%al
ffffffff80004978:	ee                   	out    %al,(%dx)
ffffffff80004979:	b0 2e                	mov    $0x2e,%al
ffffffff8000497b:	ee                   	out    %al,(%dx)
ffffffff8000497c:	b0 70                	mov    $0x70,%al
ffffffff8000497e:	ee                   	out    %al,(%dx)
ffffffff8000497f:	b0 72                	mov    $0x72,%al
ffffffff80004981:	ee                   	out    %al,(%dx)
ffffffff80004982:	b0 65                	mov    $0x65,%al
ffffffff80004984:	ee                   	out    %al,(%dx)
ffffffff80004985:	b0 73                	mov    $0x73,%al
ffffffff80004987:	ee                   	out    %al,(%dx)
ffffffff80004988:	b0 65                	mov    $0x65,%al
ffffffff8000498a:	ee                   	out    %al,(%dx)
ffffffff8000498b:	b0 6e                	mov    $0x6e,%al
ffffffff8000498d:	ee                   	out    %al,(%dx)
ffffffff8000498e:	b0 74                	mov    $0x74,%al
ffffffff80004990:	ee                   	out    %al,(%dx)
ffffffff80004991:	b0 20                	mov    $0x20,%al
ffffffff80004993:	ee                   	out    %al,(%dx)
ffffffff80004994:	b0 3d                	mov    $0x3d,%al
ffffffff80004996:	ee                   	out    %al,(%dx)
ffffffff80004997:	b0 20                	mov    $0x20,%al
ffffffff80004999:	ee                   	out    %al,(%dx)
ffffffff8000499a:	44 89 fe             	mov    %r15d,%esi
ffffffff8000499d:	83 e6 01             	and    $0x1,%esi
ffffffff800049a0:	4c 8d 25 74 42 01 00 	lea    0x14274(%rip),%r12        # ffffffff80018c1b <__anon_5610>
ffffffff800049a7:	48 8d 1d 50 42 01 00 	lea    0x14250(%rip),%rbx        # ffffffff80018bfe <__anon_5606>
ffffffff800049ae:	48 89 df             	mov    %rbx,%rdi
ffffffff800049b1:	49 0f 44 fc          	cmove  %r12,%rdi
ffffffff800049b5:	48 83 f6 05          	xor    $0x5,%rsi
ffffffff800049b9:	48 8d 15 40 41 01 00 	lea    0x14140(%rip),%rdx        # ffffffff80018b00 <__anon_5249+0x9>
ffffffff800049c0:	48 8d 0d a9 66 01 00 	lea    0x166a9(%rip),%rcx        # ffffffff8001b070 <x64.tss.tss_iopb+0x70>
ffffffff800049c7:	e8 b4 ef ff ff       	call   ffffffff80003980 <fmt.formatBuf__anon_2525>
ffffffff800049cc:	66 85 c0             	test   %ax,%ax
ffffffff800049cf:	0f 85 28 06 00 00    	jne    ffffffff80004ffd <log.scoped(.idt).err__anon_2217+0x83d>
ffffffff800049d5:	66 ba f8 03          	mov    $0x3f8,%dx
ffffffff800049d9:	b0 2c                	mov    $0x2c,%al
ffffffff800049db:	ee                   	out    %al,(%dx)
ffffffff800049dc:	b0 20                	mov    $0x20,%al
ffffffff800049de:	ee                   	out    %al,(%dx)
ffffffff800049df:	b0 2e                	mov    $0x2e,%al
ffffffff800049e1:	ee                   	out    %al,(%dx)
ffffffff800049e2:	b0 77                	mov    $0x77,%al
ffffffff800049e4:	ee                   	out    %al,(%dx)
ffffffff800049e5:	b0 72                	mov    $0x72,%al
ffffffff800049e7:	ee                   	out    %al,(%dx)
ffffffff800049e8:	b0 69                	mov    $0x69,%al
ffffffff800049ea:	ee                   	out    %al,(%dx)
ffffffff800049eb:	b0 74                	mov    $0x74,%al
ffffffff800049ed:	ee                   	out    %al,(%dx)
ffffffff800049ee:	b0 65                	mov    $0x65,%al
ffffffff800049f0:	ee                   	out    %al,(%dx)
ffffffff800049f1:	b0 20                	mov    $0x20,%al
ffffffff800049f3:	ee                   	out    %al,(%dx)
ffffffff800049f4:	b0 3d                	mov    $0x3d,%al
ffffffff800049f6:	ee                   	out    %al,(%dx)
ffffffff800049f7:	b0 20                	mov    $0x20,%al
ffffffff800049f9:	ee                   	out    %al,(%dx)
ffffffff800049fa:	31 f6                	xor    %esi,%esi
ffffffff800049fc:	41 f6 c7 02          	test   $0x2,%r15b
ffffffff80004a00:	40 0f 94 c6          	sete   %sil
ffffffff80004a04:	48 89 df             	mov    %rbx,%rdi
ffffffff80004a07:	49 0f 44 fc          	cmove  %r12,%rdi
ffffffff80004a0b:	48 83 ce 04          	or     $0x4,%rsi
ffffffff80004a0f:	48 8d 15 ea 40 01 00 	lea    0x140ea(%rip),%rdx        # ffffffff80018b00 <__anon_5249+0x9>
ffffffff80004a16:	48 8d 0d 53 66 01 00 	lea    0x16653(%rip),%rcx        # ffffffff8001b070 <x64.tss.tss_iopb+0x70>
ffffffff80004a1d:	e8 5e ef ff ff       	call   ffffffff80003980 <fmt.formatBuf__anon_2525>
ffffffff80004a22:	66 85 c0             	test   %ax,%ax
ffffffff80004a25:	0f 85 d2 05 00 00    	jne    ffffffff80004ffd <log.scoped(.idt).err__anon_2217+0x83d>
ffffffff80004a2b:	66 ba f8 03          	mov    $0x3f8,%dx
ffffffff80004a2f:	b0 2c                	mov    $0x2c,%al
ffffffff80004a31:	ee                   	out    %al,(%dx)
ffffffff80004a32:	b0 20                	mov    $0x20,%al
ffffffff80004a34:	ee                   	out    %al,(%dx)
ffffffff80004a35:	b0 2e                	mov    $0x2e,%al
ffffffff80004a37:	ee                   	out    %al,(%dx)
ffffffff80004a38:	b0 75                	mov    $0x75,%al
ffffffff80004a3a:	ee                   	out    %al,(%dx)
ffffffff80004a3b:	b0 73                	mov    $0x73,%al
ffffffff80004a3d:	ee                   	out    %al,(%dx)
ffffffff80004a3e:	b0 65                	mov    $0x65,%al
ffffffff80004a40:	ee                   	out    %al,(%dx)
ffffffff80004a41:	b0 72                	mov    $0x72,%al
ffffffff80004a43:	ee                   	out    %al,(%dx)
ffffffff80004a44:	b0 20                	mov    $0x20,%al
ffffffff80004a46:	ee                   	out    %al,(%dx)
ffffffff80004a47:	b0 3d                	mov    $0x3d,%al
ffffffff80004a49:	ee                   	out    %al,(%dx)
ffffffff80004a4a:	b0 20                	mov    $0x20,%al
ffffffff80004a4c:	ee                   	out    %al,(%dx)
ffffffff80004a4d:	31 f6                	xor    %esi,%esi
ffffffff80004a4f:	41 f6 c7 04          	test   $0x4,%r15b
ffffffff80004a53:	40 0f 94 c6          	sete   %sil
ffffffff80004a57:	48 89 df             	mov    %rbx,%rdi
ffffffff80004a5a:	49 0f 44 fc          	cmove  %r12,%rdi
ffffffff80004a5e:	48 83 ce 04          	or     $0x4,%rsi
ffffffff80004a62:	48 8d 15 97 40 01 00 	lea    0x14097(%rip),%rdx        # ffffffff80018b00 <__anon_5249+0x9>
ffffffff80004a69:	48 8d 0d 00 66 01 00 	lea    0x16600(%rip),%rcx        # ffffffff8001b070 <x64.tss.tss_iopb+0x70>
ffffffff80004a70:	e8 0b ef ff ff       	call   ffffffff80003980 <fmt.formatBuf__anon_2525>
ffffffff80004a75:	66 85 c0             	test   %ax,%ax
ffffffff80004a78:	0f 85 7f 05 00 00    	jne    ffffffff80004ffd <log.scoped(.idt).err__anon_2217+0x83d>
ffffffff80004a7e:	66 ba f8 03          	mov    $0x3f8,%dx
ffffffff80004a82:	b0 2c                	mov    $0x2c,%al
ffffffff80004a84:	ee                   	out    %al,(%dx)
ffffffff80004a85:	b0 20                	mov    $0x20,%al
ffffffff80004a87:	ee                   	out    %al,(%dx)
ffffffff80004a88:	b0 2e                	mov    $0x2e,%al
ffffffff80004a8a:	ee                   	out    %al,(%dx)
ffffffff80004a8b:	b0 72                	mov    $0x72,%al
ffffffff80004a8d:	ee                   	out    %al,(%dx)
ffffffff80004a8e:	b0 65                	mov    $0x65,%al
ffffffff80004a90:	ee                   	out    %al,(%dx)
ffffffff80004a91:	b0 73                	mov    $0x73,%al
ffffffff80004a93:	ee                   	out    %al,(%dx)
ffffffff80004a94:	b0 65                	mov    $0x65,%al
ffffffff80004a96:	ee                   	out    %al,(%dx)
ffffffff80004a97:	b0 72                	mov    $0x72,%al
ffffffff80004a99:	ee                   	out    %al,(%dx)
ffffffff80004a9a:	b0 76                	mov    $0x76,%al
ffffffff80004a9c:	ee                   	out    %al,(%dx)
ffffffff80004a9d:	b0 65                	mov    $0x65,%al
ffffffff80004a9f:	ee                   	out    %al,(%dx)
ffffffff80004aa0:	b0 64                	mov    $0x64,%al
ffffffff80004aa2:	ee                   	out    %al,(%dx)
ffffffff80004aa3:	b0 5f                	mov    $0x5f,%al
ffffffff80004aa5:	ee                   	out    %al,(%dx)
ffffffff80004aa6:	b0 77                	mov    $0x77,%al
ffffffff80004aa8:	ee                   	out    %al,(%dx)
ffffffff80004aa9:	b0 72                	mov    $0x72,%al
ffffffff80004aab:	ee                   	out    %al,(%dx)
ffffffff80004aac:	b0 69                	mov    $0x69,%al
ffffffff80004aae:	ee                   	out    %al,(%dx)
ffffffff80004aaf:	b0 74                	mov    $0x74,%al
ffffffff80004ab1:	ee                   	out    %al,(%dx)
ffffffff80004ab2:	b0 65                	mov    $0x65,%al
ffffffff80004ab4:	ee                   	out    %al,(%dx)
ffffffff80004ab5:	b0 20                	mov    $0x20,%al
ffffffff80004ab7:	ee                   	out    %al,(%dx)
ffffffff80004ab8:	b0 3d                	mov    $0x3d,%al
ffffffff80004aba:	ee                   	out    %al,(%dx)
ffffffff80004abb:	b0 20                	mov    $0x20,%al
ffffffff80004abd:	ee                   	out    %al,(%dx)
ffffffff80004abe:	31 f6                	xor    %esi,%esi
ffffffff80004ac0:	41 f6 c7 08          	test   $0x8,%r15b
ffffffff80004ac4:	40 0f 94 c6          	sete   %sil
ffffffff80004ac8:	48 89 df             	mov    %rbx,%rdi
ffffffff80004acb:	49 0f 44 fc          	cmove  %r12,%rdi
ffffffff80004acf:	48 83 ce 04          	or     $0x4,%rsi
ffffffff80004ad3:	48 8d 15 26 40 01 00 	lea    0x14026(%rip),%rdx        # ffffffff80018b00 <__anon_5249+0x9>
ffffffff80004ada:	48 8d 0d 8f 65 01 00 	lea    0x1658f(%rip),%rcx        # ffffffff8001b070 <x64.tss.tss_iopb+0x70>
ffffffff80004ae1:	e8 9a ee ff ff       	call   ffffffff80003980 <fmt.formatBuf__anon_2525>
ffffffff80004ae6:	66 85 c0             	test   %ax,%ax
ffffffff80004ae9:	0f 85 0e 05 00 00    	jne    ffffffff80004ffd <log.scoped(.idt).err__anon_2217+0x83d>
ffffffff80004aef:	66 ba f8 03          	mov    $0x3f8,%dx
ffffffff80004af3:	b0 2c                	mov    $0x2c,%al
ffffffff80004af5:	ee                   	out    %al,(%dx)
ffffffff80004af6:	b0 20                	mov    $0x20,%al
ffffffff80004af8:	ee                   	out    %al,(%dx)
ffffffff80004af9:	b0 2e                	mov    $0x2e,%al
ffffffff80004afb:	ee                   	out    %al,(%dx)
ffffffff80004afc:	b0 69                	mov    $0x69,%al
ffffffff80004afe:	ee                   	out    %al,(%dx)
ffffffff80004aff:	b0 6e                	mov    $0x6e,%al
ffffffff80004b01:	ee                   	out    %al,(%dx)
ffffffff80004b02:	b0 73                	mov    $0x73,%al
ffffffff80004b04:	ee                   	out    %al,(%dx)
ffffffff80004b05:	b0 74                	mov    $0x74,%al
ffffffff80004b07:	ee                   	out    %al,(%dx)
ffffffff80004b08:	b0 72                	mov    $0x72,%al
ffffffff80004b0a:	ee                   	out    %al,(%dx)
ffffffff80004b0b:	b0 75                	mov    $0x75,%al
ffffffff80004b0d:	ee                   	out    %al,(%dx)
ffffffff80004b0e:	b0 63                	mov    $0x63,%al
ffffffff80004b10:	ee                   	out    %al,(%dx)
ffffffff80004b11:	b0 74                	mov    $0x74,%al
ffffffff80004b13:	ee                   	out    %al,(%dx)
ffffffff80004b14:	b0 69                	mov    $0x69,%al
ffffffff80004b16:	ee                   	out    %al,(%dx)
ffffffff80004b17:	b0 6f                	mov    $0x6f,%al
ffffffff80004b19:	ee                   	out    %al,(%dx)
ffffffff80004b1a:	b0 6e                	mov    $0x6e,%al
ffffffff80004b1c:	ee                   	out    %al,(%dx)
ffffffff80004b1d:	b0 5f                	mov    $0x5f,%al
ffffffff80004b1f:	ee                   	out    %al,(%dx)
ffffffff80004b20:	b0 66                	mov    $0x66,%al
ffffffff80004b22:	ee                   	out    %al,(%dx)
ffffffff80004b23:	b0 65                	mov    $0x65,%al
ffffffff80004b25:	ee                   	out    %al,(%dx)
ffffffff80004b26:	b0 74                	mov    $0x74,%al
ffffffff80004b28:	ee                   	out    %al,(%dx)
ffffffff80004b29:	b0 63                	mov    $0x63,%al
ffffffff80004b2b:	ee                   	out    %al,(%dx)
ffffffff80004b2c:	b0 68                	mov    $0x68,%al
ffffffff80004b2e:	ee                   	out    %al,(%dx)
ffffffff80004b2f:	b0 20                	mov    $0x20,%al
ffffffff80004b31:	ee                   	out    %al,(%dx)
ffffffff80004b32:	b0 3d                	mov    $0x3d,%al
ffffffff80004b34:	ee                   	out    %al,(%dx)
ffffffff80004b35:	b0 20                	mov    $0x20,%al
ffffffff80004b37:	ee                   	out    %al,(%dx)
ffffffff80004b38:	31 f6                	xor    %esi,%esi
ffffffff80004b3a:	41 f6 c7 10          	test   $0x10,%r15b
ffffffff80004b3e:	40 0f 94 c6          	sete   %sil
ffffffff80004b42:	48 89 df             	mov    %rbx,%rdi
ffffffff80004b45:	49 0f 44 fc          	cmove  %r12,%rdi
ffffffff80004b49:	48 83 ce 04          	or     $0x4,%rsi
ffffffff80004b4d:	48 8d 15 ac 3f 01 00 	lea    0x13fac(%rip),%rdx        # ffffffff80018b00 <__anon_5249+0x9>
ffffffff80004b54:	48 8d 0d 15 65 01 00 	lea    0x16515(%rip),%rcx        # ffffffff8001b070 <x64.tss.tss_iopb+0x70>
ffffffff80004b5b:	e8 20 ee ff ff       	call   ffffffff80003980 <fmt.formatBuf__anon_2525>
ffffffff80004b60:	66 85 c0             	test   %ax,%ax
ffffffff80004b63:	0f 85 94 04 00 00    	jne    ffffffff80004ffd <log.scoped(.idt).err__anon_2217+0x83d>
ffffffff80004b69:	66 ba f8 03          	mov    $0x3f8,%dx
ffffffff80004b6d:	b0 2c                	mov    $0x2c,%al
ffffffff80004b6f:	ee                   	out    %al,(%dx)
ffffffff80004b70:	b0 20                	mov    $0x20,%al
ffffffff80004b72:	ee                   	out    %al,(%dx)
ffffffff80004b73:	b0 2e                	mov    $0x2e,%al
ffffffff80004b75:	ee                   	out    %al,(%dx)
ffffffff80004b76:	b0 70                	mov    $0x70,%al
ffffffff80004b78:	ee                   	out    %al,(%dx)
ffffffff80004b79:	b0 72                	mov    $0x72,%al
ffffffff80004b7b:	ee                   	out    %al,(%dx)
ffffffff80004b7c:	b0 6f                	mov    $0x6f,%al
ffffffff80004b7e:	ee                   	out    %al,(%dx)
ffffffff80004b7f:	b0 74                	mov    $0x74,%al
ffffffff80004b81:	ee                   	out    %al,(%dx)
ffffffff80004b82:	b0 65                	mov    $0x65,%al
ffffffff80004b84:	ee                   	out    %al,(%dx)
ffffffff80004b85:	b0 63                	mov    $0x63,%al
ffffffff80004b87:	ee                   	out    %al,(%dx)
ffffffff80004b88:	b0 74                	mov    $0x74,%al
ffffffff80004b8a:	ee                   	out    %al,(%dx)
ffffffff80004b8b:	b0 69                	mov    $0x69,%al
ffffffff80004b8d:	ee                   	out    %al,(%dx)
ffffffff80004b8e:	b0 6f                	mov    $0x6f,%al
ffffffff80004b90:	ee                   	out    %al,(%dx)
ffffffff80004b91:	b0 6e                	mov    $0x6e,%al
ffffffff80004b93:	ee                   	out    %al,(%dx)
ffffffff80004b94:	b0 5f                	mov    $0x5f,%al
ffffffff80004b96:	ee                   	out    %al,(%dx)
ffffffff80004b97:	b0 6b                	mov    $0x6b,%al
ffffffff80004b99:	ee                   	out    %al,(%dx)
ffffffff80004b9a:	b0 65                	mov    $0x65,%al
ffffffff80004b9c:	ee                   	out    %al,(%dx)
ffffffff80004b9d:	b0 79                	mov    $0x79,%al
ffffffff80004b9f:	ee                   	out    %al,(%dx)
ffffffff80004ba0:	b0 20                	mov    $0x20,%al
ffffffff80004ba2:	ee                   	out    %al,(%dx)
ffffffff80004ba3:	b0 3d                	mov    $0x3d,%al
ffffffff80004ba5:	ee                   	out    %al,(%dx)
ffffffff80004ba6:	b0 20                	mov    $0x20,%al
ffffffff80004ba8:	ee                   	out    %al,(%dx)
ffffffff80004ba9:	31 f6                	xor    %esi,%esi
ffffffff80004bab:	41 f6 c7 20          	test   $0x20,%r15b
ffffffff80004baf:	40 0f 94 c6          	sete   %sil
ffffffff80004bb3:	48 89 df             	mov    %rbx,%rdi
ffffffff80004bb6:	49 0f 44 fc          	cmove  %r12,%rdi
ffffffff80004bba:	48 83 ce 04          	or     $0x4,%rsi
ffffffff80004bbe:	48 8d 15 3b 3f 01 00 	lea    0x13f3b(%rip),%rdx        # ffffffff80018b00 <__anon_5249+0x9>
ffffffff80004bc5:	48 8d 0d a4 64 01 00 	lea    0x164a4(%rip),%rcx        # ffffffff8001b070 <x64.tss.tss_iopb+0x70>
ffffffff80004bcc:	e8 af ed ff ff       	call   ffffffff80003980 <fmt.formatBuf__anon_2525>
ffffffff80004bd1:	66 85 c0             	test   %ax,%ax
ffffffff80004bd4:	0f 85 23 04 00 00    	jne    ffffffff80004ffd <log.scoped(.idt).err__anon_2217+0x83d>
ffffffff80004bda:	66 ba f8 03          	mov    $0x3f8,%dx
ffffffff80004bde:	b0 2c                	mov    $0x2c,%al
ffffffff80004be0:	ee                   	out    %al,(%dx)
ffffffff80004be1:	b0 20                	mov    $0x20,%al
ffffffff80004be3:	ee                   	out    %al,(%dx)
ffffffff80004be4:	b0 2e                	mov    $0x2e,%al
ffffffff80004be6:	ee                   	out    %al,(%dx)
ffffffff80004be7:	b0 73                	mov    $0x73,%al
ffffffff80004be9:	ee                   	out    %al,(%dx)
ffffffff80004bea:	b0 68                	mov    $0x68,%al
ffffffff80004bec:	ee                   	out    %al,(%dx)
ffffffff80004bed:	b0 61                	mov    $0x61,%al
ffffffff80004bef:	ee                   	out    %al,(%dx)
ffffffff80004bf0:	b0 64                	mov    $0x64,%al
ffffffff80004bf2:	ee                   	out    %al,(%dx)
ffffffff80004bf3:	b0 6f                	mov    $0x6f,%al
ffffffff80004bf5:	ee                   	out    %al,(%dx)
ffffffff80004bf6:	b0 77                	mov    $0x77,%al
ffffffff80004bf8:	ee                   	out    %al,(%dx)
ffffffff80004bf9:	b0 5f                	mov    $0x5f,%al
ffffffff80004bfb:	ee                   	out    %al,(%dx)
ffffffff80004bfc:	b0 73                	mov    $0x73,%al
ffffffff80004bfe:	ee                   	out    %al,(%dx)
ffffffff80004bff:	b0 74                	mov    $0x74,%al
ffffffff80004c01:	ee                   	out    %al,(%dx)
ffffffff80004c02:	b0 61                	mov    $0x61,%al
ffffffff80004c04:	ee                   	out    %al,(%dx)
ffffffff80004c05:	b0 63                	mov    $0x63,%al
ffffffff80004c07:	ee                   	out    %al,(%dx)
ffffffff80004c08:	b0 6b                	mov    $0x6b,%al
ffffffff80004c0a:	ee                   	out    %al,(%dx)
ffffffff80004c0b:	b0 20                	mov    $0x20,%al
ffffffff80004c0d:	ee                   	out    %al,(%dx)
ffffffff80004c0e:	b0 3d                	mov    $0x3d,%al
ffffffff80004c10:	ee                   	out    %al,(%dx)
ffffffff80004c11:	b0 20                	mov    $0x20,%al
ffffffff80004c13:	ee                   	out    %al,(%dx)
ffffffff80004c14:	31 f6                	xor    %esi,%esi
ffffffff80004c16:	41 f6 c7 40          	test   $0x40,%r15b
ffffffff80004c1a:	40 0f 94 c6          	sete   %sil
ffffffff80004c1e:	48 89 df             	mov    %rbx,%rdi
ffffffff80004c21:	49 0f 44 fc          	cmove  %r12,%rdi
ffffffff80004c25:	48 83 ce 04          	or     $0x4,%rsi
ffffffff80004c29:	48 8d 15 d0 3e 01 00 	lea    0x13ed0(%rip),%rdx        # ffffffff80018b00 <__anon_5249+0x9>
ffffffff80004c30:	48 8d 0d 39 64 01 00 	lea    0x16439(%rip),%rcx        # ffffffff8001b070 <x64.tss.tss_iopb+0x70>
ffffffff80004c37:	e8 44 ed ff ff       	call   ffffffff80003980 <fmt.formatBuf__anon_2525>
ffffffff80004c3c:	66 85 c0             	test   %ax,%ax
ffffffff80004c3f:	0f 85 b8 03 00 00    	jne    ffffffff80004ffd <log.scoped(.idt).err__anon_2217+0x83d>
ffffffff80004c45:	66 ba f8 03          	mov    $0x3f8,%dx
ffffffff80004c49:	b0 2c                	mov    $0x2c,%al
ffffffff80004c4b:	ee                   	out    %al,(%dx)
ffffffff80004c4c:	b0 20                	mov    $0x20,%al
ffffffff80004c4e:	ee                   	out    %al,(%dx)
ffffffff80004c4f:	b0 2e                	mov    $0x2e,%al
ffffffff80004c51:	ee                   	out    %al,(%dx)
ffffffff80004c52:	b0 5f                	mov    $0x5f,%al
ffffffff80004c54:	ee                   	out    %al,(%dx)
ffffffff80004c55:	b0 31                	mov    $0x31,%al
ffffffff80004c57:	ee                   	out    %al,(%dx)
ffffffff80004c58:	b0 20                	mov    $0x20,%al
ffffffff80004c5a:	ee                   	out    %al,(%dx)
ffffffff80004c5b:	b0 3d                	mov    $0x3d,%al
ffffffff80004c5d:	ee                   	out    %al,(%dx)
ffffffff80004c5e:	b0 20                	mov    $0x20,%al
ffffffff80004c60:	ee                   	out    %al,(%dx)
ffffffff80004c61:	4c 89 f8             	mov    %r15,%rax
ffffffff80004c64:	48 c1 e8 07          	shr    $0x7,%rax
ffffffff80004c68:	4c 89 34 24          	mov    %r14,(%rsp)
ffffffff80004c6c:	c6 44 24 08 aa       	movb   $0xaa,0x8(%rsp)
ffffffff80004c71:	3c 63                	cmp    $0x63,%al
ffffffff80004c73:	76 2d                	jbe    ffffffff80004ca2 <log.scoped(.idt).err__anon_2217+0x4e2>
ffffffff80004c75:	0f b6 c8             	movzbl %al,%ecx
ffffffff80004c78:	8d 14 89             	lea    (%rcx,%rcx,4),%edx
ffffffff80004c7b:	8d 14 d1             	lea    (%rcx,%rdx,8),%edx
ffffffff80004c7e:	c1 ea 0c             	shr    $0xc,%edx
ffffffff80004c81:	6b ca 64             	imul   $0x64,%edx,%ecx
ffffffff80004c84:	28 c8                	sub    %cl,%al
ffffffff80004c86:	0f b6 c0             	movzbl %al,%eax
ffffffff80004c89:	48 8d 0d bd 3f 01 00 	lea    0x13fbd(%rip),%rcx        # ffffffff80018c4d <__anon_6068>
ffffffff80004c90:	0f b7 04 41          	movzwl (%rcx,%rax,2),%eax
ffffffff80004c94:	66 89 44 24 07       	mov    %ax,0x7(%rsp)
ffffffff80004c99:	b9 06 00 00 00       	mov    $0x6,%ecx
ffffffff80004c9e:	89 d0                	mov    %edx,%eax
ffffffff80004ca0:	eb 09                	jmp    ffffffff80004cab <log.scoped(.idt).err__anon_2217+0x4eb>
ffffffff80004ca2:	b9 08 00 00 00       	mov    $0x8,%ecx
ffffffff80004ca7:	3c 0a                	cmp    $0xa,%al
ffffffff80004ca9:	73 07                	jae    ffffffff80004cb2 <log.scoped(.idt).err__anon_2217+0x4f2>
ffffffff80004cab:	0c 30                	or     $0x30,%al
ffffffff80004cad:	88 04 0c             	mov    %al,(%rsp,%rcx,1)
ffffffff80004cb0:	eb 18                	jmp    ffffffff80004cca <log.scoped(.idt).err__anon_2217+0x50a>
ffffffff80004cb2:	83 e0 7f             	and    $0x7f,%eax
ffffffff80004cb5:	48 8d 0d 91 3f 01 00 	lea    0x13f91(%rip),%rcx        # ffffffff80018c4d <__anon_6068>
ffffffff80004cbc:	0f b7 04 41          	movzwl (%rcx,%rax,2),%eax
ffffffff80004cc0:	66 89 44 24 07       	mov    %ax,0x7(%rsp)
ffffffff80004cc5:	b9 07 00 00 00       	mov    $0x7,%ecx
ffffffff80004cca:	be 09 00 00 00       	mov    $0x9,%esi
ffffffff80004ccf:	48 29 ce             	sub    %rcx,%rsi
ffffffff80004cd2:	48 8d 3c 0c          	lea    (%rsp,%rcx,1),%rdi
ffffffff80004cd6:	48 8d 15 23 3e 01 00 	lea    0x13e23(%rip),%rdx        # ffffffff80018b00 <__anon_5249+0x9>
ffffffff80004cdd:	48 8d 0d 8c 63 01 00 	lea    0x1638c(%rip),%rcx        # ffffffff8001b070 <x64.tss.tss_iopb+0x70>
ffffffff80004ce4:	e8 97 ec ff ff       	call   ffffffff80003980 <fmt.formatBuf__anon_2525>
ffffffff80004ce9:	66 85 c0             	test   %ax,%ax
ffffffff80004cec:	0f 85 0b 03 00 00    	jne    ffffffff80004ffd <log.scoped(.idt).err__anon_2217+0x83d>
ffffffff80004cf2:	66 ba f8 03          	mov    $0x3f8,%dx
ffffffff80004cf6:	b0 2c                	mov    $0x2c,%al
ffffffff80004cf8:	ee                   	out    %al,(%dx)
ffffffff80004cf9:	b0 20                	mov    $0x20,%al
ffffffff80004cfb:	ee                   	out    %al,(%dx)
ffffffff80004cfc:	b0 2e                	mov    $0x2e,%al
ffffffff80004cfe:	ee                   	out    %al,(%dx)
ffffffff80004cff:	b0 73                	mov    $0x73,%al
ffffffff80004d01:	ee                   	out    %al,(%dx)
ffffffff80004d02:	b0 6f                	mov    $0x6f,%al
ffffffff80004d04:	ee                   	out    %al,(%dx)
ffffffff80004d05:	b0 66                	mov    $0x66,%al
ffffffff80004d07:	ee                   	out    %al,(%dx)
ffffffff80004d08:	b0 74                	mov    $0x74,%al
ffffffff80004d0a:	ee                   	out    %al,(%dx)
ffffffff80004d0b:	b0 77                	mov    $0x77,%al
ffffffff80004d0d:	ee                   	out    %al,(%dx)
ffffffff80004d0e:	b0 61                	mov    $0x61,%al
ffffffff80004d10:	ee                   	out    %al,(%dx)
ffffffff80004d11:	b0 72                	mov    $0x72,%al
ffffffff80004d13:	ee                   	out    %al,(%dx)
ffffffff80004d14:	b0 65                	mov    $0x65,%al
ffffffff80004d16:	ee                   	out    %al,(%dx)
ffffffff80004d17:	b0 5f                	mov    $0x5f,%al
ffffffff80004d19:	ee                   	out    %al,(%dx)
ffffffff80004d1a:	b0 67                	mov    $0x67,%al
ffffffff80004d1c:	ee                   	out    %al,(%dx)
ffffffff80004d1d:	b0 75                	mov    $0x75,%al
ffffffff80004d1f:	ee                   	out    %al,(%dx)
ffffffff80004d20:	b0 61                	mov    $0x61,%al
ffffffff80004d22:	ee                   	out    %al,(%dx)
ffffffff80004d23:	b0 72                	mov    $0x72,%al
ffffffff80004d25:	ee                   	out    %al,(%dx)
ffffffff80004d26:	b0 64                	mov    $0x64,%al
ffffffff80004d28:	ee                   	out    %al,(%dx)
ffffffff80004d29:	b0 5f                	mov    $0x5f,%al
ffffffff80004d2b:	ee                   	out    %al,(%dx)
ffffffff80004d2c:	b0 65                	mov    $0x65,%al
ffffffff80004d2e:	ee                   	out    %al,(%dx)
ffffffff80004d2f:	b0 78                	mov    $0x78,%al
ffffffff80004d31:	ee                   	out    %al,(%dx)
ffffffff80004d32:	b0 74                	mov    $0x74,%al
ffffffff80004d34:	ee                   	out    %al,(%dx)
ffffffff80004d35:	b0 65                	mov    $0x65,%al
ffffffff80004d37:	ee                   	out    %al,(%dx)
ffffffff80004d38:	b0 6e                	mov    $0x6e,%al
ffffffff80004d3a:	ee                   	out    %al,(%dx)
ffffffff80004d3b:	b0 73                	mov    $0x73,%al
ffffffff80004d3d:	ee                   	out    %al,(%dx)
ffffffff80004d3e:	b0 69                	mov    $0x69,%al
ffffffff80004d40:	ee                   	out    %al,(%dx)
ffffffff80004d41:	b0 6f                	mov    $0x6f,%al
ffffffff80004d43:	ee                   	out    %al,(%dx)
ffffffff80004d44:	b0 6e                	mov    $0x6e,%al
ffffffff80004d46:	ee                   	out    %al,(%dx)
ffffffff80004d47:	b0 73                	mov    $0x73,%al
ffffffff80004d49:	ee                   	out    %al,(%dx)
ffffffff80004d4a:	b0 20                	mov    $0x20,%al
ffffffff80004d4c:	ee                   	out    %al,(%dx)
ffffffff80004d4d:	b0 3d                	mov    $0x3d,%al
ffffffff80004d4f:	ee                   	out    %al,(%dx)
ffffffff80004d50:	b0 20                	mov    $0x20,%al
ffffffff80004d52:	ee                   	out    %al,(%dx)
ffffffff80004d53:	31 f6                	xor    %esi,%esi
ffffffff80004d55:	66 45 85 ff          	test   %r15w,%r15w
ffffffff80004d59:	40 0f 99 c6          	setns  %sil
ffffffff80004d5d:	49 0f 49 dc          	cmovns %r12,%rbx
ffffffff80004d61:	48 83 ce 04          	or     $0x4,%rsi
ffffffff80004d65:	48 8d 15 94 3d 01 00 	lea    0x13d94(%rip),%rdx        # ffffffff80018b00 <__anon_5249+0x9>
ffffffff80004d6c:	48 8d 0d fd 62 01 00 	lea    0x162fd(%rip),%rcx        # ffffffff8001b070 <x64.tss.tss_iopb+0x70>
ffffffff80004d73:	48 89 df             	mov    %rbx,%rdi
ffffffff80004d76:	e8 05 ec ff ff       	call   ffffffff80003980 <fmt.formatBuf__anon_2525>
ffffffff80004d7b:	66 85 c0             	test   %ax,%ax
ffffffff80004d7e:	0f 85 79 02 00 00    	jne    ffffffff80004ffd <log.scoped(.idt).err__anon_2217+0x83d>
ffffffff80004d84:	66 ba f8 03          	mov    $0x3f8,%dx
ffffffff80004d88:	b0 2c                	mov    $0x2c,%al
ffffffff80004d8a:	ee                   	out    %al,(%dx)
ffffffff80004d8b:	b0 20                	mov    $0x20,%al
ffffffff80004d8d:	ee                   	out    %al,(%dx)
ffffffff80004d8e:	b0 2e                	mov    $0x2e,%al
ffffffff80004d90:	ee                   	out    %al,(%dx)
ffffffff80004d91:	b0 5f                	mov    $0x5f,%al
ffffffff80004d93:	ee                   	out    %al,(%dx)
ffffffff80004d94:	b0 32                	mov    $0x32,%al
ffffffff80004d96:	ee                   	out    %al,(%dx)
ffffffff80004d97:	b0 20                	mov    $0x20,%al
ffffffff80004d99:	ee                   	out    %al,(%dx)
ffffffff80004d9a:	b0 3d                	mov    $0x3d,%al
ffffffff80004d9c:	ee                   	out    %al,(%dx)
ffffffff80004d9d:	b0 20                	mov    $0x20,%al
ffffffff80004d9f:	ee                   	out    %al,(%dx)
ffffffff80004da0:	44 89 f8             	mov    %r15d,%eax
ffffffff80004da3:	c1 e8 10             	shr    $0x10,%eax
ffffffff80004da6:	4c 89 74 24 08       	mov    %r14,0x8(%rsp)
ffffffff80004dab:	4c 89 34 24          	mov    %r14,(%rsp)
ffffffff80004daf:	c6 44 24 10 aa       	movb   $0xaa,0x10(%rsp)
ffffffff80004db4:	b9 11 00 00 00       	mov    $0x11,%ecx
ffffffff80004db9:	66 83 f8 64          	cmp    $0x64,%ax
ffffffff80004dbd:	72 68                	jb     ffffffff80004e27 <log.scoped(.idt).err__anon_2217+0x667>
ffffffff80004dbf:	0f b7 d0             	movzwl %ax,%edx
ffffffff80004dc2:	89 d1                	mov    %edx,%ecx
ffffffff80004dc4:	c1 e9 02             	shr    $0x2,%ecx
ffffffff80004dc7:	69 c9 7b 14 00 00    	imul   $0x147b,%ecx,%ecx
ffffffff80004dcd:	c1 e9 11             	shr    $0x11,%ecx
ffffffff80004dd0:	6b f1 64             	imul   $0x64,%ecx,%esi
ffffffff80004dd3:	29 f0                	sub    %esi,%eax
ffffffff80004dd5:	0f b7 c0             	movzwl %ax,%eax
ffffffff80004dd8:	48 8d 35 6e 3e 01 00 	lea    0x13e6e(%rip),%rsi        # ffffffff80018c4d <__anon_6068>
ffffffff80004ddf:	0f b7 04 46          	movzwl (%rsi,%rax,2),%eax
ffffffff80004de3:	66 89 44 24 0f       	mov    %ax,0xf(%rsp)
ffffffff80004de8:	89 c8                	mov    %ecx,%eax
ffffffff80004dea:	b9 0f 00 00 00       	mov    $0xf,%ecx
ffffffff80004def:	81 fa 0f 27 00 00    	cmp    $0x270f,%edx
ffffffff80004df5:	76 30                	jbe    ffffffff80004e27 <log.scoped(.idt).err__anon_2217+0x667>
ffffffff80004df7:	0f b7 c0             	movzwl %ax,%eax
ffffffff80004dfa:	69 c8 90 02 00 00    	imul   $0x290,%eax,%ecx
ffffffff80004e00:	c1 e9 10             	shr    $0x10,%ecx
ffffffff80004e03:	6b c9 64             	imul   $0x64,%ecx,%ecx
ffffffff80004e06:	29 c8                	sub    %ecx,%eax
ffffffff80004e08:	0f b7 c0             	movzwl %ax,%eax
ffffffff80004e0b:	0f b7 04 46          	movzwl (%rsi,%rax,2),%eax
ffffffff80004e0f:	66 89 44 24 0d       	mov    %ax,0xd(%rsp)
ffffffff80004e14:	c1 ea 04             	shr    $0x4,%edx
ffffffff80004e17:	69 c2 47 03 00 00    	imul   $0x347,%edx,%eax
ffffffff80004e1d:	c1 e8 13             	shr    $0x13,%eax
ffffffff80004e20:	b9 0d 00 00 00       	mov    $0xd,%ecx
ffffffff80004e25:	eb 06                	jmp    ffffffff80004e2d <log.scoped(.idt).err__anon_2217+0x66d>
ffffffff80004e27:	66 83 f8 0a          	cmp    $0xa,%ax
ffffffff80004e2b:	73 0c                	jae    ffffffff80004e39 <log.scoped(.idt).err__anon_2217+0x679>
ffffffff80004e2d:	0c 30                	or     $0x30,%al
ffffffff80004e2f:	88 44 0c ff          	mov    %al,-0x1(%rsp,%rcx,1)
ffffffff80004e33:	48 83 c1 ff          	add    $0xffffffffffffffff,%rcx
ffffffff80004e37:	eb 17                	jmp    ffffffff80004e50 <log.scoped(.idt).err__anon_2217+0x690>
ffffffff80004e39:	0f b7 c0             	movzwl %ax,%eax
ffffffff80004e3c:	48 8d 15 0a 3e 01 00 	lea    0x13e0a(%rip),%rdx        # ffffffff80018c4d <__anon_6068>
ffffffff80004e43:	0f b7 04 42          	movzwl (%rdx,%rax,2),%eax
ffffffff80004e47:	66 89 44 0c fe       	mov    %ax,-0x2(%rsp,%rcx,1)
ffffffff80004e4c:	48 83 c1 fe          	add    $0xfffffffffffffffe,%rcx
ffffffff80004e50:	be 11 00 00 00       	mov    $0x11,%esi
ffffffff80004e55:	48 29 ce             	sub    %rcx,%rsi
ffffffff80004e58:	48 8d 3c 0c          	lea    (%rsp,%rcx,1),%rdi
ffffffff80004e5c:	48 8d 15 9d 3c 01 00 	lea    0x13c9d(%rip),%rdx        # ffffffff80018b00 <__anon_5249+0x9>
ffffffff80004e63:	48 8d 0d 06 62 01 00 	lea    0x16206(%rip),%rcx        # ffffffff8001b070 <x64.tss.tss_iopb+0x70>
ffffffff80004e6a:	e8 11 eb ff ff       	call   ffffffff80003980 <fmt.formatBuf__anon_2525>
ffffffff80004e6f:	66 85 c0             	test   %ax,%ax
ffffffff80004e72:	0f 85 85 01 00 00    	jne    ffffffff80004ffd <log.scoped(.idt).err__anon_2217+0x83d>
ffffffff80004e78:	66 ba f8 03          	mov    $0x3f8,%dx
ffffffff80004e7c:	b0 2c                	mov    $0x2c,%al
ffffffff80004e7e:	ee                   	out    %al,(%dx)
ffffffff80004e7f:	b0 20                	mov    $0x20,%al
ffffffff80004e81:	ee                   	out    %al,(%dx)
ffffffff80004e82:	b0 2e                	mov    $0x2e,%al
ffffffff80004e84:	ee                   	out    %al,(%dx)
ffffffff80004e85:	b0 5f                	mov    $0x5f,%al
ffffffff80004e87:	ee                   	out    %al,(%dx)
ffffffff80004e88:	b0 33                	mov    $0x33,%al
ffffffff80004e8a:	ee                   	out    %al,(%dx)
ffffffff80004e8b:	b0 20                	mov    $0x20,%al
ffffffff80004e8d:	ee                   	out    %al,(%dx)
ffffffff80004e8e:	b0 3d                	mov    $0x3d,%al
ffffffff80004e90:	ee                   	out    %al,(%dx)
ffffffff80004e91:	b0 20                	mov    $0x20,%al
ffffffff80004e93:	ee                   	out    %al,(%dx)
ffffffff80004e94:	49 c1 ef 20          	shr    $0x20,%r15
ffffffff80004e98:	4c 89 74 24 18       	mov    %r14,0x18(%rsp)
ffffffff80004e9d:	4c 89 74 24 10       	mov    %r14,0x10(%rsp)
ffffffff80004ea2:	4c 89 74 24 08       	mov    %r14,0x8(%rsp)
ffffffff80004ea7:	4c 89 34 24          	mov    %r14,(%rsp)
ffffffff80004eab:	c6 44 24 20 aa       	movb   $0xaa,0x20(%rsp)
ffffffff80004eb0:	ba 21 00 00 00       	mov    $0x21,%edx
ffffffff80004eb5:	41 83 ff 64          	cmp    $0x64,%r15d
ffffffff80004eb9:	0f 82 cc 00 00 00    	jb     ffffffff80004f8b <log.scoped(.idt).err__anon_2217+0x7cb>
ffffffff80004ebf:	44 89 f8             	mov    %r15d,%eax
ffffffff80004ec2:	48 69 f0 1f 85 eb 51 	imul   $0x51eb851f,%rax,%rsi
ffffffff80004ec9:	48 c1 ee 25          	shr    $0x25,%rsi
ffffffff80004ecd:	6b ce 64             	imul   $0x64,%esi,%ecx
ffffffff80004ed0:	44 89 fa             	mov    %r15d,%edx
ffffffff80004ed3:	29 ca                	sub    %ecx,%edx
ffffffff80004ed5:	48 8d 0d 71 3d 01 00 	lea    0x13d71(%rip),%rcx        # ffffffff80018c4d <__anon_6068>
ffffffff80004edc:	0f b7 14 51          	movzwl (%rcx,%rdx,2),%edx
ffffffff80004ee0:	66 89 54 24 1f       	mov    %dx,0x1f(%rsp)
ffffffff80004ee5:	ba 1f 00 00 00       	mov    $0x1f,%edx
ffffffff80004eea:	41 81 ff 0f 27 00 00 	cmp    $0x270f,%r15d
ffffffff80004ef1:	0f 86 a9 00 00 00    	jbe    ffffffff80004fa0 <log.scoped(.idt).err__anon_2217+0x7e0>
ffffffff80004ef7:	89 f2                	mov    %esi,%edx
ffffffff80004ef9:	48 69 d2 29 5c 8f 02 	imul   $0x28f5c29,%rdx,%rdx
ffffffff80004f00:	48 c1 ea 20          	shr    $0x20,%rdx
ffffffff80004f04:	6b d2 64             	imul   $0x64,%edx,%edx
ffffffff80004f07:	29 d6                	sub    %edx,%esi
ffffffff80004f09:	0f b7 14 71          	movzwl (%rcx,%rsi,2),%edx
ffffffff80004f0d:	66 89 54 24 1d       	mov    %dx,0x1d(%rsp)
ffffffff80004f12:	be 59 17 b7 d1       	mov    $0xd1b71759,%esi
ffffffff80004f17:	48 0f af f0          	imul   %rax,%rsi
ffffffff80004f1b:	48 c1 ee 2d          	shr    $0x2d,%rsi
ffffffff80004f1f:	ba 1d 00 00 00       	mov    $0x1d,%edx
ffffffff80004f24:	41 81 ff 40 42 0f 00 	cmp    $0xf4240,%r15d
ffffffff80004f2b:	72 73                	jb     ffffffff80004fa0 <log.scoped(.idt).err__anon_2217+0x7e0>
ffffffff80004f2d:	89 f2                	mov    %esi,%edx
ffffffff80004f2f:	48 69 d2 29 5c 8f 02 	imul   $0x28f5c29,%rdx,%rdx
ffffffff80004f36:	48 c1 ea 20          	shr    $0x20,%rdx
ffffffff80004f3a:	6b d2 64             	imul   $0x64,%edx,%edx
ffffffff80004f3d:	29 d6                	sub    %edx,%esi
ffffffff80004f3f:	0f b7 14 71          	movzwl (%rcx,%rsi,2),%edx
ffffffff80004f43:	66 89 54 24 1b       	mov    %dx,0x1b(%rsp)
ffffffff80004f48:	48 69 f0 83 de 1b 43 	imul   $0x431bde83,%rax,%rsi
ffffffff80004f4f:	48 c1 ee 32          	shr    $0x32,%rsi
ffffffff80004f53:	ba 1b 00 00 00       	mov    $0x1b,%edx
ffffffff80004f58:	41 81 ff 00 e1 f5 05 	cmp    $0x5f5e100,%r15d
ffffffff80004f5f:	72 3f                	jb     ffffffff80004fa0 <log.scoped(.idt).err__anon_2217+0x7e0>
ffffffff80004f61:	69 d6 7b 14 00 00    	imul   $0x147b,%esi,%edx
ffffffff80004f67:	c1 ea 13             	shr    $0x13,%edx
ffffffff80004f6a:	6b d2 64             	imul   $0x64,%edx,%edx
ffffffff80004f6d:	29 d6                	sub    %edx,%esi
ffffffff80004f6f:	0f b7 d6             	movzwl %si,%edx
ffffffff80004f72:	0f b7 0c 51          	movzwl (%rcx,%rdx,2),%ecx
ffffffff80004f76:	66 89 4c 24 19       	mov    %cx,0x19(%rsp)
ffffffff80004f7b:	4c 69 f8 89 3b e6 55 	imul   $0x55e63b89,%rax,%r15
ffffffff80004f82:	49 c1 ef 39          	shr    $0x39,%r15
ffffffff80004f86:	ba 19 00 00 00       	mov    $0x19,%edx
ffffffff80004f8b:	41 83 ff 0a          	cmp    $0xa,%r15d
ffffffff80004f8f:	73 18                	jae    ffffffff80004fa9 <log.scoped(.idt).err__anon_2217+0x7e9>
ffffffff80004f91:	41 80 cf 30          	or     $0x30,%r15b
ffffffff80004f95:	44 88 7c 14 ff       	mov    %r15b,-0x1(%rsp,%rdx,1)
ffffffff80004f9a:	48 83 c2 ff          	add    $0xffffffffffffffff,%rdx
ffffffff80004f9e:	eb 20                	jmp    ffffffff80004fc0 <log.scoped(.idt).err__anon_2217+0x800>
ffffffff80004fa0:	41 89 f7             	mov    %esi,%r15d
ffffffff80004fa3:	41 83 ff 0a          	cmp    $0xa,%r15d
ffffffff80004fa7:	72 e8                	jb     ffffffff80004f91 <log.scoped(.idt).err__anon_2217+0x7d1>
ffffffff80004fa9:	44 89 f8             	mov    %r15d,%eax
ffffffff80004fac:	48 8d 0d 9a 3c 01 00 	lea    0x13c9a(%rip),%rcx        # ffffffff80018c4d <__anon_6068>
ffffffff80004fb3:	0f b7 04 41          	movzwl (%rcx,%rax,2),%eax
ffffffff80004fb7:	66 89 44 14 fe       	mov    %ax,-0x2(%rsp,%rdx,1)
ffffffff80004fbc:	48 83 c2 fe          	add    $0xfffffffffffffffe,%rdx
ffffffff80004fc0:	be 21 00 00 00       	mov    $0x21,%esi
ffffffff80004fc5:	48 29 d6             	sub    %rdx,%rsi
ffffffff80004fc8:	48 8d 3c 14          	lea    (%rsp,%rdx,1),%rdi
ffffffff80004fcc:	48 8d 15 2d 3b 01 00 	lea    0x13b2d(%rip),%rdx        # ffffffff80018b00 <__anon_5249+0x9>
ffffffff80004fd3:	48 8d 0d 96 60 01 00 	lea    0x16096(%rip),%rcx        # ffffffff8001b070 <x64.tss.tss_iopb+0x70>
ffffffff80004fda:	e8 a1 e9 ff ff       	call   ffffffff80003980 <fmt.formatBuf__anon_2525>
ffffffff80004fdf:	66 85 c0             	test   %ax,%ax
ffffffff80004fe2:	75 19                	jne    ffffffff80004ffd <log.scoped(.idt).err__anon_2217+0x83d>
ffffffff80004fe4:	66 ba f8 03          	mov    $0x3f8,%dx
ffffffff80004fe8:	b0 20                	mov    $0x20,%al
ffffffff80004fea:	ee                   	out    %al,(%dx)
ffffffff80004feb:	b0 7d                	mov    $0x7d,%al
ffffffff80004fed:	ee                   	out    %al,(%dx)
ffffffff80004fee:	b0 0a                	mov    $0xa,%al
ffffffff80004ff0:	ee                   	out    %al,(%dx)
ffffffff80004ff1:	48 83 c4 58          	add    $0x58,%rsp
ffffffff80004ff5:	5b                   	pop    %rbx
ffffffff80004ff6:	41 5c                	pop    %r12
ffffffff80004ff8:	41 5e                	pop    %r14
ffffffff80004ffa:	41 5f                	pop    %r15
ffffffff80004ffc:	c3                   	ret
ffffffff80004ffd:	48 8d 3d 1d 3c 01 00 	lea    0x13c1d(%rip),%rdi        # ffffffff80018c21 <__anon_3293>
ffffffff80005004:	be 12 00 00 00       	mov    $0x12,%esi
ffffffff80005009:	e8 82 bc ff ff       	call   ffffffff80000c90 <main.panic>
